
bomb:     file format elf32-i386


Disassembly of section .init:

080486bc <_init>:
 80486bc:	53                   	push   %ebx
 80486bd:	83 ec 08             	sub    $0x8,%esp
 80486c0:	e8 1b 02 00 00       	call   80488e0 <__x86.get_pc_thunk.bx>
 80486c5:	81 c3 3b 39 00 00    	add    $0x393b,%ebx
 80486cb:	8b 83 fc ff ff ff    	mov    -0x4(%ebx),%eax
 80486d1:	85 c0                	test   %eax,%eax
 80486d3:	74 05                	je     80486da <_init+0x1e>
 80486d5:	e8 c6 01 00 00       	call   80488a0 <.plt.got>
 80486da:	83 c4 08             	add    $0x8,%esp
 80486dd:	5b                   	pop    %ebx
 80486de:	c3                   	ret    

Disassembly of section .plt:

080486e0 <.plt>:
 80486e0:	ff 35 04 c0 04 08    	pushl  0x804c004
 80486e6:	ff 25 08 c0 04 08    	jmp    *0x804c008
 80486ec:	00 00                	add    %al,(%eax)
	...

080486f0 <read@plt>:
 80486f0:	ff 25 0c c0 04 08    	jmp    *0x804c00c
 80486f6:	68 00 00 00 00       	push   $0x0
 80486fb:	e9 e0 ff ff ff       	jmp    80486e0 <.plt>

08048700 <printf@plt>:
 8048700:	ff 25 10 c0 04 08    	jmp    *0x804c010
 8048706:	68 08 00 00 00       	push   $0x8
 804870b:	e9 d0 ff ff ff       	jmp    80486e0 <.plt>

08048710 <fflush@plt>:
 8048710:	ff 25 14 c0 04 08    	jmp    *0x804c014
 8048716:	68 10 00 00 00       	push   $0x10
 804871b:	e9 c0 ff ff ff       	jmp    80486e0 <.plt>

08048720 <memcpy@plt>:
 8048720:	ff 25 18 c0 04 08    	jmp    *0x804c018
 8048726:	68 18 00 00 00       	push   $0x18
 804872b:	e9 b0 ff ff ff       	jmp    80486e0 <.plt>

08048730 <fgets@plt>:
 8048730:	ff 25 1c c0 04 08    	jmp    *0x804c01c
 8048736:	68 20 00 00 00       	push   $0x20
 804873b:	e9 a0 ff ff ff       	jmp    80486e0 <.plt>

08048740 <signal@plt>:
 8048740:	ff 25 20 c0 04 08    	jmp    *0x804c020
 8048746:	68 28 00 00 00       	push   $0x28
 804874b:	e9 90 ff ff ff       	jmp    80486e0 <.plt>

08048750 <sleep@plt>:
 8048750:	ff 25 24 c0 04 08    	jmp    *0x804c024
 8048756:	68 30 00 00 00       	push   $0x30
 804875b:	e9 80 ff ff ff       	jmp    80486e0 <.plt>

08048760 <alarm@plt>:
 8048760:	ff 25 28 c0 04 08    	jmp    *0x804c028
 8048766:	68 38 00 00 00       	push   $0x38
 804876b:	e9 70 ff ff ff       	jmp    80486e0 <.plt>

08048770 <bcopy@plt>:
 8048770:	ff 25 2c c0 04 08    	jmp    *0x804c02c
 8048776:	68 40 00 00 00       	push   $0x40
 804877b:	e9 60 ff ff ff       	jmp    80486e0 <.plt>

08048780 <strcpy@plt>:
 8048780:	ff 25 30 c0 04 08    	jmp    *0x804c030
 8048786:	68 48 00 00 00       	push   $0x48
 804878b:	e9 50 ff ff ff       	jmp    80486e0 <.plt>

08048790 <gethostname@plt>:
 8048790:	ff 25 34 c0 04 08    	jmp    *0x804c034
 8048796:	68 50 00 00 00       	push   $0x50
 804879b:	e9 40 ff ff ff       	jmp    80486e0 <.plt>

080487a0 <getenv@plt>:
 80487a0:	ff 25 38 c0 04 08    	jmp    *0x804c038
 80487a6:	68 58 00 00 00       	push   $0x58
 80487ab:	e9 30 ff ff ff       	jmp    80486e0 <.plt>

080487b0 <puts@plt>:
 80487b0:	ff 25 3c c0 04 08    	jmp    *0x804c03c
 80487b6:	68 60 00 00 00       	push   $0x60
 80487bb:	e9 20 ff ff ff       	jmp    80486e0 <.plt>

080487c0 <exit@plt>:
 80487c0:	ff 25 40 c0 04 08    	jmp    *0x804c040
 80487c6:	68 68 00 00 00       	push   $0x68
 80487cb:	e9 10 ff ff ff       	jmp    80486e0 <.plt>

080487d0 <__libc_start_main@plt>:
 80487d0:	ff 25 44 c0 04 08    	jmp    *0x804c044
 80487d6:	68 70 00 00 00       	push   $0x70
 80487db:	e9 00 ff ff ff       	jmp    80486e0 <.plt>

080487e0 <fprintf@plt>:
 80487e0:	ff 25 48 c0 04 08    	jmp    *0x804c048
 80487e6:	68 78 00 00 00       	push   $0x78
 80487eb:	e9 f0 fe ff ff       	jmp    80486e0 <.plt>

080487f0 <write@plt>:
 80487f0:	ff 25 4c c0 04 08    	jmp    *0x804c04c
 80487f6:	68 80 00 00 00       	push   $0x80
 80487fb:	e9 e0 fe ff ff       	jmp    80486e0 <.plt>

08048800 <strcasecmp@plt>:
 8048800:	ff 25 50 c0 04 08    	jmp    *0x804c050
 8048806:	68 88 00 00 00       	push   $0x88
 804880b:	e9 d0 fe ff ff       	jmp    80486e0 <.plt>

08048810 <__isoc99_sscanf@plt>:
 8048810:	ff 25 54 c0 04 08    	jmp    *0x804c054
 8048816:	68 90 00 00 00       	push   $0x90
 804881b:	e9 c0 fe ff ff       	jmp    80486e0 <.plt>

08048820 <fopen@plt>:
 8048820:	ff 25 58 c0 04 08    	jmp    *0x804c058
 8048826:	68 98 00 00 00       	push   $0x98
 804882b:	e9 b0 fe ff ff       	jmp    80486e0 <.plt>

08048830 <__errno_location@plt>:
 8048830:	ff 25 5c c0 04 08    	jmp    *0x804c05c
 8048836:	68 a0 00 00 00       	push   $0xa0
 804883b:	e9 a0 fe ff ff       	jmp    80486e0 <.plt>

08048840 <sprintf@plt>:
 8048840:	ff 25 60 c0 04 08    	jmp    *0x804c060
 8048846:	68 a8 00 00 00       	push   $0xa8
 804884b:	e9 90 fe ff ff       	jmp    80486e0 <.plt>

08048850 <socket@plt>:
 8048850:	ff 25 64 c0 04 08    	jmp    *0x804c064
 8048856:	68 b0 00 00 00       	push   $0xb0
 804885b:	e9 80 fe ff ff       	jmp    80486e0 <.plt>

08048860 <gethostbyname@plt>:
 8048860:	ff 25 68 c0 04 08    	jmp    *0x804c068
 8048866:	68 b8 00 00 00       	push   $0xb8
 804886b:	e9 70 fe ff ff       	jmp    80486e0 <.plt>

08048870 <connect@plt>:
 8048870:	ff 25 6c c0 04 08    	jmp    *0x804c06c
 8048876:	68 c0 00 00 00       	push   $0xc0
 804887b:	e9 60 fe ff ff       	jmp    80486e0 <.plt>

08048880 <close@plt>:
 8048880:	ff 25 70 c0 04 08    	jmp    *0x804c070
 8048886:	68 c8 00 00 00       	push   $0xc8
 804888b:	e9 50 fe ff ff       	jmp    80486e0 <.plt>

08048890 <__ctype_b_loc@plt>:
 8048890:	ff 25 74 c0 04 08    	jmp    *0x804c074
 8048896:	68 d0 00 00 00       	push   $0xd0
 804889b:	e9 40 fe ff ff       	jmp    80486e0 <.plt>

Disassembly of section .plt.got:

080488a0 <.plt.got>:
 80488a0:	ff 25 fc bf 04 08    	jmp    *0x804bffc
 80488a6:	66 90                	xchg   %ax,%ax

Disassembly of section .text:

080488b0 <_start>:
 80488b0:	31 ed                	xor    %ebp,%ebp
 80488b2:	5e                   	pop    %esi
 80488b3:	89 e1                	mov    %esp,%ecx
 80488b5:	83 e4 f0             	and    $0xfffffff0,%esp
 80488b8:	50                   	push   %eax
 80488b9:	54                   	push   %esp
 80488ba:	52                   	push   %edx
 80488bb:	68 60 a0 04 08       	push   $0x804a060
 80488c0:	68 f0 9f 04 08       	push   $0x8049ff0
 80488c5:	51                   	push   %ecx
 80488c6:	56                   	push   %esi
 80488c7:	68 ad 89 04 08       	push   $0x80489ad
 80488cc:	e8 ff fe ff ff       	call   80487d0 <__libc_start_main@plt>
 80488d1:	f4                   	hlt    
 80488d2:	66 90                	xchg   %ax,%ax
 80488d4:	66 90                	xchg   %ax,%ax
 80488d6:	66 90                	xchg   %ax,%ax
 80488d8:	66 90                	xchg   %ax,%ax
 80488da:	66 90                	xchg   %ax,%ax
 80488dc:	66 90                	xchg   %ax,%ax
 80488de:	66 90                	xchg   %ax,%ax

080488e0 <__x86.get_pc_thunk.bx>:
 80488e0:	8b 1c 24             	mov    (%esp),%ebx
 80488e3:	c3                   	ret    
 80488e4:	66 90                	xchg   %ax,%ax
 80488e6:	66 90                	xchg   %ax,%ax
 80488e8:	66 90                	xchg   %ax,%ax
 80488ea:	66 90                	xchg   %ax,%ax
 80488ec:	66 90                	xchg   %ax,%ax
 80488ee:	66 90                	xchg   %ax,%ax

080488f0 <deregister_tm_clones>:
 80488f0:	b8 23 c7 04 08       	mov    $0x804c723,%eax
 80488f5:	2d 20 c7 04 08       	sub    $0x804c720,%eax
 80488fa:	83 f8 06             	cmp    $0x6,%eax
 80488fd:	77 01                	ja     8048900 <deregister_tm_clones+0x10>
 80488ff:	c3                   	ret    
 8048900:	b8 00 00 00 00       	mov    $0x0,%eax
 8048905:	85 c0                	test   %eax,%eax
 8048907:	74 f6                	je     80488ff <deregister_tm_clones+0xf>
 8048909:	55                   	push   %ebp
 804890a:	89 e5                	mov    %esp,%ebp
 804890c:	83 ec 18             	sub    $0x18,%esp
 804890f:	c7 04 24 20 c7 04 08 	movl   $0x804c720,(%esp)
 8048916:	ff d0                	call   *%eax
 8048918:	c9                   	leave  
 8048919:	c3                   	ret    
 804891a:	8d b6 00 00 00 00    	lea    0x0(%esi),%esi

08048920 <register_tm_clones>:
 8048920:	b8 20 c7 04 08       	mov    $0x804c720,%eax
 8048925:	2d 20 c7 04 08       	sub    $0x804c720,%eax
 804892a:	c1 f8 02             	sar    $0x2,%eax
 804892d:	89 c2                	mov    %eax,%edx
 804892f:	c1 ea 1f             	shr    $0x1f,%edx
 8048932:	01 d0                	add    %edx,%eax
 8048934:	d1 f8                	sar    %eax
 8048936:	75 01                	jne    8048939 <register_tm_clones+0x19>
 8048938:	c3                   	ret    
 8048939:	ba 00 00 00 00       	mov    $0x0,%edx
 804893e:	85 d2                	test   %edx,%edx
 8048940:	74 f6                	je     8048938 <register_tm_clones+0x18>
 8048942:	55                   	push   %ebp
 8048943:	89 e5                	mov    %esp,%ebp
 8048945:	83 ec 18             	sub    $0x18,%esp
 8048948:	89 44 24 04          	mov    %eax,0x4(%esp)
 804894c:	c7 04 24 20 c7 04 08 	movl   $0x804c720,(%esp)
 8048953:	ff d2                	call   *%edx
 8048955:	c9                   	leave  
 8048956:	c3                   	ret    
 8048957:	89 f6                	mov    %esi,%esi
 8048959:	8d bc 27 00 00 00 00 	lea    0x0(%edi,%eiz,1),%edi

08048960 <__do_global_dtors_aux>:
 8048960:	80 3d 44 c7 04 08 00 	cmpb   $0x0,0x804c744
 8048967:	75 13                	jne    804897c <__do_global_dtors_aux+0x1c>
 8048969:	55                   	push   %ebp
 804896a:	89 e5                	mov    %esp,%ebp
 804896c:	83 ec 08             	sub    $0x8,%esp
 804896f:	e8 7c ff ff ff       	call   80488f0 <deregister_tm_clones>
 8048974:	c6 05 44 c7 04 08 01 	movb   $0x1,0x804c744
 804897b:	c9                   	leave  
 804897c:	f3 c3                	repz ret 
 804897e:	66 90                	xchg   %ax,%ax

08048980 <frame_dummy>:
 8048980:	a1 10 bf 04 08       	mov    0x804bf10,%eax
 8048985:	85 c0                	test   %eax,%eax
 8048987:	74 1f                	je     80489a8 <frame_dummy+0x28>
 8048989:	b8 00 00 00 00       	mov    $0x0,%eax
 804898e:	85 c0                	test   %eax,%eax
 8048990:	74 16                	je     80489a8 <frame_dummy+0x28>
 8048992:	55                   	push   %ebp
 8048993:	89 e5                	mov    %esp,%ebp
 8048995:	83 ec 18             	sub    $0x18,%esp
 8048998:	c7 04 24 10 bf 04 08 	movl   $0x804bf10,(%esp)
 804899f:	ff d0                	call   *%eax
 80489a1:	c9                   	leave  
 80489a2:	e9 79 ff ff ff       	jmp    8048920 <register_tm_clones>
 80489a7:	90                   	nop
 80489a8:	e9 73 ff ff ff       	jmp    8048920 <register_tm_clones>

080489ad <main>:
 80489ad:	55                   	push   %ebp
 80489ae:	89 e5                	mov    %esp,%ebp
 80489b0:	53                   	push   %ebx
 80489b1:	83 e4 f0             	and    $0xfffffff0,%esp
 80489b4:	83 ec 10             	sub    $0x10,%esp
 80489b7:	8b 45 08             	mov    0x8(%ebp),%eax
 80489ba:	8b 5d 0c             	mov    0xc(%ebp),%ebx
 80489bd:	83 f8 01             	cmp    $0x1,%eax
 80489c0:	75 0c                	jne    80489ce <main+0x21>
 80489c2:	a1 24 c7 04 08       	mov    0x804c724,%eax
 80489c7:	a3 4c c7 04 08       	mov    %eax,0x804c74c
 80489cc:	eb 64                	jmp    8048a32 <main+0x85>
 80489ce:	83 f8 02             	cmp    $0x2,%eax
 80489d1:	75 41                	jne    8048a14 <main+0x67>
 80489d3:	c7 44 24 04 84 a0 04 	movl   $0x804a084,0x4(%esp)
 80489da:	08 
 80489db:	8b 43 04             	mov    0x4(%ebx),%eax
 80489de:	89 04 24             	mov    %eax,(%esp)
 80489e1:	e8 3a fe ff ff       	call   8048820 <fopen@plt>
 80489e6:	a3 4c c7 04 08       	mov    %eax,0x804c74c
 80489eb:	85 c0                	test   %eax,%eax
 80489ed:	75 43                	jne    8048a32 <main+0x85>
 80489ef:	8b 43 04             	mov    0x4(%ebx),%eax
 80489f2:	89 44 24 08          	mov    %eax,0x8(%esp)
 80489f6:	8b 03                	mov    (%ebx),%eax
 80489f8:	89 44 24 04          	mov    %eax,0x4(%esp)
 80489fc:	c7 04 24 86 a0 04 08 	movl   $0x804a086,(%esp)
 8048a03:	e8 f8 fc ff ff       	call   8048700 <printf@plt>
 8048a08:	c7 04 24 08 00 00 00 	movl   $0x8,(%esp)
 8048a0f:	e8 ac fd ff ff       	call   80487c0 <exit@plt>
 8048a14:	8b 03                	mov    (%ebx),%eax
 8048a16:	89 44 24 04          	mov    %eax,0x4(%esp)
 8048a1a:	c7 04 24 a3 a0 04 08 	movl   $0x804a0a3,(%esp)
 8048a21:	e8 da fc ff ff       	call   8048700 <printf@plt>
 8048a26:	c7 04 24 08 00 00 00 	movl   $0x8,(%esp)
 8048a2d:	e8 8e fd ff ff       	call   80487c0 <exit@plt>
 8048a32:	e8 cf 05 00 00       	call   8049006 <initialize_bomb>
 8048a37:	c7 04 24 18 a1 04 08 	movl   $0x804a118,(%esp)
 8048a3e:	e8 6d fd ff ff       	call   80487b0 <puts@plt>
 8048a43:	c7 04 24 54 a1 04 08 	movl   $0x804a154,(%esp)
 8048a4a:	e8 61 fd ff ff       	call   80487b0 <puts@plt>
 8048a4f:	e8 70 08 00 00       	call   80492c4 <read_line>
 8048a54:	89 04 24             	mov    %eax,(%esp)
 8048a57:	e8 b4 00 00 00       	call   8048b10 <phase_1>
 8048a5c:	e8 97 09 00 00       	call   80493f8 <phase_defused>
 8048a61:	c7 04 24 80 a1 04 08 	movl   $0x804a180,(%esp)
 8048a68:	e8 43 fd ff ff       	call   80487b0 <puts@plt>
 8048a6d:	e8 52 08 00 00       	call   80492c4 <read_line>
 8048a72:	89 04 24             	mov    %eax,(%esp)
 8048a75:	e8 ba 00 00 00       	call   8048b34 <phase_2>
 8048a7a:	e8 79 09 00 00       	call   80493f8 <phase_defused>
 8048a7f:	c7 04 24 bd a0 04 08 	movl   $0x804a0bd,(%esp)
 8048a86:	e8 25 fd ff ff       	call   80487b0 <puts@plt>
 8048a8b:	e8 34 08 00 00       	call   80492c4 <read_line>
 8048a90:	89 04 24             	mov    %eax,(%esp)
 8048a93:	e8 f2 00 00 00       	call   8048b8a <phase_3>
 8048a98:	e8 5b 09 00 00       	call   80493f8 <phase_defused>
 8048a9d:	c7 04 24 db a0 04 08 	movl   $0x804a0db,(%esp)
 8048aa4:	e8 07 fd ff ff       	call   80487b0 <puts@plt>
 8048aa9:	e8 16 08 00 00       	call   80492c4 <read_line>
 8048aae:	89 04 24             	mov    %eax,(%esp)
 8048ab1:	e8 8e 02 00 00       	call   8048d44 <phase_4>
 8048ab6:	e8 3d 09 00 00       	call   80493f8 <phase_defused>
 8048abb:	c7 04 24 ac a1 04 08 	movl   $0x804a1ac,(%esp)
 8048ac2:	e8 e9 fc ff ff       	call   80487b0 <puts@plt>
 8048ac7:	e8 f8 07 00 00       	call   80492c4 <read_line>
 8048acc:	89 04 24             	mov    %eax,(%esp)
 8048acf:	e8 d9 02 00 00       	call   8048dad <phase_5>
 8048ad4:	e8 1f 09 00 00       	call   80493f8 <phase_defused>
 8048ad9:	c7 04 24 ec a0 04 08 	movl   $0x804a0ec,(%esp)
 8048ae0:	e8 cb fc ff ff       	call   80487b0 <puts@plt>
 8048ae5:	e8 da 07 00 00       	call   80492c4 <read_line>
 8048aea:	89 04 24             	mov    %eax,(%esp)
 8048aed:	e8 21 03 00 00       	call   8048e13 <phase_6>
 8048af2:	e8 01 09 00 00       	call   80493f8 <phase_defused>
 8048af7:	c7 04 24 0a a1 04 08 	movl   $0x804a10a,(%esp)
 8048afe:	e8 ad fc ff ff       	call   80487b0 <puts@plt>
 8048b03:	b8 00 00 00 00       	mov    $0x0,%eax
 8048b08:	8b 5d fc             	mov    -0x4(%ebp),%ebx
 8048b0b:	c9                   	leave  
 8048b0c:	c3                   	ret    
 8048b0d:	66 90                	xchg   %ax,%ax
 8048b0f:	90                   	nop

08048b10 <phase_1>:
 8048b10:	83 ec 1c             	sub    $0x1c,%esp
 8048b13:	c7 44 24 04 d0 a1 04 	movl   $0x804a1d0,0x4(%esp)
 8048b1a:	08 
 8048b1b:	8b 44 24 20          	mov    0x20(%esp),%eax
 8048b1f:	89 04 24             	mov    %eax,(%esp)
 8048b22:	e8 73 04 00 00       	call   8048f9a <strings_not_equal>
 8048b27:	85 c0                	test   %eax,%eax
 8048b29:	74 05                	je     8048b30 <phase_1+0x20>
 8048b2b:	e8 05 07 00 00       	call   8049235 <explode_bomb>
 8048b30:	83 c4 1c             	add    $0x1c,%esp
 8048b33:	c3                   	ret    

08048b34 <phase_2>:
 8048b34:	56                   	push   %esi
 8048b35:	53                   	push   %ebx
 8048b36:	83 ec 34             	sub    $0x34,%esp
 8048b39:	8d 44 24 18          	lea    0x18(%esp),%eax
 8048b3d:	89 44 24 04          	mov    %eax,0x4(%esp)
 8048b41:	8b 44 24 40          	mov    0x40(%esp),%eax
 8048b45:	89 04 24             	mov    %eax,(%esp)
 8048b48:	e8 27 07 00 00       	call   8049274 <read_six_numbers>
 8048b4d:	83 7c 24 18 00       	cmpl   $0x0,0x18(%esp)
 8048b52:	75 07                	jne    8048b5b <phase_2+0x27>
 8048b54:	83 7c 24 1c 01       	cmpl   $0x1,0x1c(%esp)
 8048b59:	74 1f                	je     8048b7a <phase_2+0x46>
 8048b5b:	e8 d5 06 00 00       	call   8049235 <explode_bomb>
 8048b60:	eb 18                	jmp    8048b7a <phase_2+0x46>
 8048b62:	8b 43 f8             	mov    -0x8(%ebx),%eax
 8048b65:	03 43 fc             	add    -0x4(%ebx),%eax
 8048b68:	39 03                	cmp    %eax,(%ebx)
 8048b6a:	74 05                	je     8048b71 <phase_2+0x3d>
 8048b6c:	e8 c4 06 00 00       	call   8049235 <explode_bomb>
 8048b71:	83 c3 04             	add    $0x4,%ebx
 8048b74:	39 f3                	cmp    %esi,%ebx
 8048b76:	75 ea                	jne    8048b62 <phase_2+0x2e>
 8048b78:	eb 0a                	jmp    8048b84 <phase_2+0x50>
 8048b7a:	8d 5c 24 20          	lea    0x20(%esp),%ebx
 8048b7e:	8d 74 24 30          	lea    0x30(%esp),%esi
 8048b82:	eb de                	jmp    8048b62 <phase_2+0x2e>
 8048b84:	83 c4 34             	add    $0x34,%esp
 8048b87:	5b                   	pop    %ebx
 8048b88:	5e                   	pop    %esi
 8048b89:	c3                   	ret    

08048b8a <phase_3>:
 8048b8a:	83 ec 3c             	sub    $0x3c,%esp
 8048b8d:	8d 44 24 28          	lea    0x28(%esp),%eax
 8048b91:	89 44 24 10          	mov    %eax,0x10(%esp)
 8048b95:	8d 44 24 27          	lea    0x27(%esp),%eax
 8048b99:	89 44 24 0c          	mov    %eax,0xc(%esp)
 8048b9d:	8d 44 24 2c          	lea    0x2c(%esp),%eax
 8048ba1:	89 44 24 08          	mov    %eax,0x8(%esp)
 8048ba5:	c7 44 24 04 f0 a1 04 	movl   $0x804a1f0,0x4(%esp)
 8048bac:	08 
 8048bad:	8b 44 24 40          	mov    0x40(%esp),%eax
 8048bb1:	89 04 24             	mov    %eax,(%esp)
 8048bb4:	e8 57 fc ff ff       	call   8048810 <__isoc99_sscanf@plt>
 8048bb9:	83 f8 02             	cmp    $0x2,%eax
 8048bbc:	7f 05                	jg     8048bc3 <phase_3+0x39>
 8048bbe:	e8 72 06 00 00       	call   8049235 <explode_bomb>
 8048bc3:	83 7c 24 2c 07       	cmpl   $0x7,0x2c(%esp)
 8048bc8:	0f 87 fc 00 00 00    	ja     8048cca <phase_3+0x140>
 8048bce:	8b 44 24 2c          	mov    0x2c(%esp),%eax
 8048bd2:	ff 24 85 00 a2 04 08 	jmp    *0x804a200(,%eax,4)
 8048bd9:	b8 6e 00 00 00       	mov    $0x6e,%eax
 8048bde:	81 7c 24 28 ca 02 00 	cmpl   $0x2ca,0x28(%esp)
 8048be5:	00 
 8048be6:	0f 84 e8 00 00 00    	je     8048cd4 <phase_3+0x14a>
 8048bec:	e8 44 06 00 00       	call   8049235 <explode_bomb>
 8048bf1:	b8 6e 00 00 00       	mov    $0x6e,%eax
 8048bf6:	e9 d9 00 00 00       	jmp    8048cd4 <phase_3+0x14a>
 8048bfb:	b8 75 00 00 00       	mov    $0x75,%eax
 8048c00:	81 7c 24 28 d8 03 00 	cmpl   $0x3d8,0x28(%esp)
 8048c07:	00 
 8048c08:	0f 84 c6 00 00 00    	je     8048cd4 <phase_3+0x14a>
 8048c0e:	e8 22 06 00 00       	call   8049235 <explode_bomb>
 8048c13:	b8 75 00 00 00       	mov    $0x75,%eax
 8048c18:	e9 b7 00 00 00       	jmp    8048cd4 <phase_3+0x14a>
 8048c1d:	b8 69 00 00 00       	mov    $0x69,%eax
 8048c22:	81 7c 24 28 3a 02 00 	cmpl   $0x23a,0x28(%esp)
 8048c29:	00 
 8048c2a:	0f 84 a4 00 00 00    	je     8048cd4 <phase_3+0x14a>
 8048c30:	e8 00 06 00 00       	call   8049235 <explode_bomb>
 8048c35:	b8 69 00 00 00       	mov    $0x69,%eax
 8048c3a:	e9 95 00 00 00       	jmp    8048cd4 <phase_3+0x14a>
 8048c3f:	b8 71 00 00 00       	mov    $0x71,%eax
 8048c44:	81 7c 24 28 0b 03 00 	cmpl   $0x30b,0x28(%esp)
 8048c4b:	00 
 8048c4c:	0f 84 82 00 00 00    	je     8048cd4 <phase_3+0x14a>
 8048c52:	e8 de 05 00 00       	call   8049235 <explode_bomb>
 8048c57:	b8 71 00 00 00       	mov    $0x71,%eax
 8048c5c:	eb 76                	jmp    8048cd4 <phase_3+0x14a>
 8048c5e:	b8 6b 00 00 00       	mov    $0x6b,%eax
 8048c63:	81 7c 24 28 c4 03 00 	cmpl   $0x3c4,0x28(%esp)
 8048c6a:	00 
 8048c6b:	74 67                	je     8048cd4 <phase_3+0x14a>
 8048c6d:	e8 c3 05 00 00       	call   8049235 <explode_bomb>
 8048c72:	b8 6b 00 00 00       	mov    $0x6b,%eax
 8048c77:	eb 5b                	jmp    8048cd4 <phase_3+0x14a>
 8048c79:	b8 76 00 00 00       	mov    $0x76,%eax
 8048c7e:	81 7c 24 28 cc 01 00 	cmpl   $0x1cc,0x28(%esp)
 8048c85:	00 
 8048c86:	74 4c                	je     8048cd4 <phase_3+0x14a>
 8048c88:	e8 a8 05 00 00       	call   8049235 <explode_bomb>
 8048c8d:	b8 76 00 00 00       	mov    $0x76,%eax
 8048c92:	eb 40                	jmp    8048cd4 <phase_3+0x14a>
 8048c94:	b8 6e 00 00 00       	mov    $0x6e,%eax
 8048c99:	81 7c 24 28 96 03 00 	cmpl   $0x396,0x28(%esp)
 8048ca0:	00 
 8048ca1:	74 31                	je     8048cd4 <phase_3+0x14a>
 8048ca3:	e8 8d 05 00 00       	call   8049235 <explode_bomb>
 8048ca8:	b8 6e 00 00 00       	mov    $0x6e,%eax
 8048cad:	eb 25                	jmp    8048cd4 <phase_3+0x14a>
 8048caf:	b8 75 00 00 00       	mov    $0x75,%eax
 8048cb4:	81 7c 24 28 6d 02 00 	cmpl   $0x26d,0x28(%esp)
 8048cbb:	00 
 8048cbc:	74 16                	je     8048cd4 <phase_3+0x14a>
 8048cbe:	e8 72 05 00 00       	call   8049235 <explode_bomb>
 8048cc3:	b8 75 00 00 00       	mov    $0x75,%eax
 8048cc8:	eb 0a                	jmp    8048cd4 <phase_3+0x14a>
 8048cca:	e8 66 05 00 00       	call   8049235 <explode_bomb>
 8048ccf:	b8 7a 00 00 00       	mov    $0x7a,%eax
 8048cd4:	3a 44 24 27          	cmp    0x27(%esp),%al
 8048cd8:	74 05                	je     8048cdf <phase_3+0x155>
 8048cda:	e8 56 05 00 00       	call   8049235 <explode_bomb>
 8048cdf:	83 c4 3c             	add    $0x3c,%esp
 8048ce2:	c3                   	ret    

08048ce3 <func4>:
 8048ce3:	56                   	push   %esi
 8048ce4:	53                   	push   %ebx
 8048ce5:	83 ec 14             	sub    $0x14,%esp
 8048ce8:	8b 54 24 20          	mov    0x20(%esp),%edx
 8048cec:	8b 44 24 24          	mov    0x24(%esp),%eax
 8048cf0:	8b 5c 24 28          	mov    0x28(%esp),%ebx
 8048cf4:	89 d9                	mov    %ebx,%ecx
 8048cf6:	29 c1                	sub    %eax,%ecx
 8048cf8:	89 ce                	mov    %ecx,%esi
 8048cfa:	c1 ee 1f             	shr    $0x1f,%esi
 8048cfd:	01 f1                	add    %esi,%ecx
 8048cff:	d1 f9                	sar    %ecx
 8048d01:	01 c1                	add    %eax,%ecx
 8048d03:	39 d1                	cmp    %edx,%ecx
 8048d05:	7e 17                	jle    8048d1e <func4+0x3b>
 8048d07:	83 e9 01             	sub    $0x1,%ecx
 8048d0a:	89 4c 24 08          	mov    %ecx,0x8(%esp)
 8048d0e:	89 44 24 04          	mov    %eax,0x4(%esp)
 8048d12:	89 14 24             	mov    %edx,(%esp)
 8048d15:	e8 c9 ff ff ff       	call   8048ce3 <func4>
 8048d1a:	01 c0                	add    %eax,%eax
 8048d1c:	eb 20                	jmp    8048d3e <func4+0x5b>
 8048d1e:	b8 00 00 00 00       	mov    $0x0,%eax
 8048d23:	39 d1                	cmp    %edx,%ecx
 8048d25:	7d 17                	jge    8048d3e <func4+0x5b>
 8048d27:	89 5c 24 08          	mov    %ebx,0x8(%esp)
 8048d2b:	83 c1 01             	add    $0x1,%ecx
 8048d2e:	89 4c 24 04          	mov    %ecx,0x4(%esp)
 8048d32:	89 14 24             	mov    %edx,(%esp)
 8048d35:	e8 a9 ff ff ff       	call   8048ce3 <func4>
 8048d3a:	8d 44 00 01          	lea    0x1(%eax,%eax,1),%eax
 8048d3e:	83 c4 14             	add    $0x14,%esp
 8048d41:	5b                   	pop    %ebx
 8048d42:	5e                   	pop    %esi
 8048d43:	c3                   	ret    

08048d44 <phase_4>:
 8048d44:	83 ec 2c             	sub    $0x2c,%esp
 8048d47:	8d 44 24 18          	lea    0x18(%esp),%eax
 8048d4b:	89 44 24 0c          	mov    %eax,0xc(%esp)
 8048d4f:	8d 44 24 1c          	lea    0x1c(%esp),%eax
 8048d53:	89 44 24 08          	mov    %eax,0x8(%esp)
 8048d57:	c7 44 24 04 11 a4 04 	movl   $0x804a411,0x4(%esp)
 8048d5e:	08 
 8048d5f:	8b 44 24 30          	mov    0x30(%esp),%eax
 8048d63:	89 04 24             	mov    %eax,(%esp)
 8048d66:	e8 a5 fa ff ff       	call   8048810 <__isoc99_sscanf@plt>
 8048d6b:	83 f8 02             	cmp    $0x2,%eax
 8048d6e:	75 07                	jne    8048d77 <phase_4+0x33>
 8048d70:	83 7c 24 1c 0e       	cmpl   $0xe,0x1c(%esp)
 8048d75:	76 05                	jbe    8048d7c <phase_4+0x38>
 8048d77:	e8 b9 04 00 00       	call   8049235 <explode_bomb>
 8048d7c:	c7 44 24 08 0e 00 00 	movl   $0xe,0x8(%esp)
 8048d83:	00 
 8048d84:	c7 44 24 04 00 00 00 	movl   $0x0,0x4(%esp)
 8048d8b:	00 
 8048d8c:	8b 44 24 1c          	mov    0x1c(%esp),%eax
 8048d90:	89 04 24             	mov    %eax,(%esp)
 8048d93:	e8 4b ff ff ff       	call   8048ce3 <func4>
 8048d98:	83 f8 03             	cmp    $0x3,%eax
 8048d9b:	75 07                	jne    8048da4 <phase_4+0x60>
 8048d9d:	83 7c 24 18 03       	cmpl   $0x3,0x18(%esp)
 8048da2:	74 05                	je     8048da9 <phase_4+0x65>
 8048da4:	e8 8c 04 00 00       	call   8049235 <explode_bomb>
 8048da9:	83 c4 2c             	add    $0x2c,%esp
 8048dac:	c3                   	ret    

08048dad <phase_5>:
 8048dad:	53                   	push   %ebx
 8048dae:	83 ec 28             	sub    $0x28,%esp
 8048db1:	8b 5c 24 30          	mov    0x30(%esp),%ebx
 8048db5:	89 1c 24             	mov    %ebx,(%esp)
 8048db8:	e8 be 01 00 00       	call   8048f7b <string_length>
 8048dbd:	83 f8 06             	cmp    $0x6,%eax
 8048dc0:	74 45                	je     8048e07 <phase_5+0x5a>
 8048dc2:	e8 6e 04 00 00       	call   8049235 <explode_bomb>
 8048dc7:	eb 3e                	jmp    8048e07 <phase_5+0x5a>
 8048dc9:	0f b6 14 03          	movzbl (%ebx,%eax,1),%edx
 8048dcd:	83 e2 0f             	and    $0xf,%edx
 8048dd0:	0f b6 92 20 a2 04 08 	movzbl 0x804a220(%edx),%edx
 8048dd7:	88 54 04 19          	mov    %dl,0x19(%esp,%eax,1)
 8048ddb:	83 c0 01             	add    $0x1,%eax
 8048dde:	83 f8 06             	cmp    $0x6,%eax
 8048de1:	75 e6                	jne    8048dc9 <phase_5+0x1c>
 8048de3:	c6 44 24 1f 00       	movb   $0x0,0x1f(%esp)
 8048de8:	c7 44 24 04 f9 a1 04 	movl   $0x804a1f9,0x4(%esp)
 8048def:	08 
 8048df0:	8d 44 24 19          	lea    0x19(%esp),%eax
 8048df4:	89 04 24             	mov    %eax,(%esp)
 8048df7:	e8 9e 01 00 00       	call   8048f9a <strings_not_equal>
 8048dfc:	85 c0                	test   %eax,%eax
 8048dfe:	74 0e                	je     8048e0e <phase_5+0x61>
 8048e00:	e8 30 04 00 00       	call   8049235 <explode_bomb>
 8048e05:	eb 07                	jmp    8048e0e <phase_5+0x61>
 8048e07:	b8 00 00 00 00       	mov    $0x0,%eax
 8048e0c:	eb bb                	jmp    8048dc9 <phase_5+0x1c>
 8048e0e:	83 c4 28             	add    $0x28,%esp
 8048e11:	5b                   	pop    %ebx
 8048e12:	c3                   	ret    

08048e13 <phase_6>:
 8048e13:	56                   	push   %esi
 8048e14:	53                   	push   %ebx
 8048e15:	83 ec 44             	sub    $0x44,%esp
 8048e18:	8d 44 24 28          	lea    0x28(%esp),%eax
 8048e1c:	89 44 24 04          	mov    %eax,0x4(%esp)
 8048e20:	8b 44 24 50          	mov    0x50(%esp),%eax
 8048e24:	89 04 24             	mov    %eax,(%esp)
 8048e27:	e8 48 04 00 00       	call   8049274 <read_six_numbers>
 8048e2c:	be 00 00 00 00       	mov    $0x0,%esi
 8048e31:	8b 44 b4 28          	mov    0x28(%esp,%esi,4),%eax
 8048e35:	83 e8 01             	sub    $0x1,%eax
 8048e38:	83 f8 05             	cmp    $0x5,%eax
 8048e3b:	76 05                	jbe    8048e42 <phase_6+0x2f>
 8048e3d:	e8 f3 03 00 00       	call   8049235 <explode_bomb>
 8048e42:	83 c6 01             	add    $0x1,%esi
 8048e45:	83 fe 06             	cmp    $0x6,%esi
 8048e48:	74 1b                	je     8048e65 <phase_6+0x52>
 8048e4a:	89 f3                	mov    %esi,%ebx
 8048e4c:	8b 44 9c 28          	mov    0x28(%esp,%ebx,4),%eax
 8048e50:	39 44 b4 24          	cmp    %eax,0x24(%esp,%esi,4)
 8048e54:	75 05                	jne    8048e5b <phase_6+0x48>
 8048e56:	e8 da 03 00 00       	call   8049235 <explode_bomb>
 8048e5b:	83 c3 01             	add    $0x1,%ebx
 8048e5e:	83 fb 05             	cmp    $0x5,%ebx
 8048e61:	7e e9                	jle    8048e4c <phase_6+0x39>
 8048e63:	eb cc                	jmp    8048e31 <phase_6+0x1e>
 8048e65:	8d 44 24 28          	lea    0x28(%esp),%eax
 8048e69:	8d 5c 24 40          	lea    0x40(%esp),%ebx
 8048e6d:	b9 07 00 00 00       	mov    $0x7,%ecx
 8048e72:	89 ca                	mov    %ecx,%edx
 8048e74:	2b 10                	sub    (%eax),%edx
 8048e76:	89 10                	mov    %edx,(%eax)
 8048e78:	83 c0 04             	add    $0x4,%eax
 8048e7b:	39 d8                	cmp    %ebx,%eax
 8048e7d:	75 f3                	jne    8048e72 <phase_6+0x5f>
 8048e7f:	bb 00 00 00 00       	mov    $0x0,%ebx
 8048e84:	eb 1d                	jmp    8048ea3 <phase_6+0x90>
 8048e86:	8b 52 08             	mov    0x8(%edx),%edx
 8048e89:	83 c0 01             	add    $0x1,%eax
 8048e8c:	39 c8                	cmp    %ecx,%eax
 8048e8e:	75 f6                	jne    8048e86 <phase_6+0x73>
 8048e90:	eb 05                	jmp    8048e97 <phase_6+0x84>
 8048e92:	ba a0 c0 04 08       	mov    $0x804c0a0,%edx
 8048e97:	89 54 b4 10          	mov    %edx,0x10(%esp,%esi,4)
 8048e9b:	83 c3 01             	add    $0x1,%ebx
 8048e9e:	83 fb 06             	cmp    $0x6,%ebx
 8048ea1:	74 17                	je     8048eba <phase_6+0xa7>
 8048ea3:	89 de                	mov    %ebx,%esi
 8048ea5:	8b 4c 9c 28          	mov    0x28(%esp,%ebx,4),%ecx
 8048ea9:	83 f9 01             	cmp    $0x1,%ecx
 8048eac:	7e e4                	jle    8048e92 <phase_6+0x7f>
 8048eae:	b8 01 00 00 00       	mov    $0x1,%eax
 8048eb3:	ba a0 c0 04 08       	mov    $0x804c0a0,%edx
 8048eb8:	eb cc                	jmp    8048e86 <phase_6+0x73>
 8048eba:	8b 5c 24 10          	mov    0x10(%esp),%ebx
 8048ebe:	8d 44 24 14          	lea    0x14(%esp),%eax
 8048ec2:	8d 74 24 28          	lea    0x28(%esp),%esi
 8048ec6:	89 d9                	mov    %ebx,%ecx
 8048ec8:	8b 10                	mov    (%eax),%edx
 8048eca:	89 51 08             	mov    %edx,0x8(%ecx)
 8048ecd:	83 c0 04             	add    $0x4,%eax
 8048ed0:	39 f0                	cmp    %esi,%eax
 8048ed2:	74 04                	je     8048ed8 <phase_6+0xc5>
 8048ed4:	89 d1                	mov    %edx,%ecx
 8048ed6:	eb f0                	jmp    8048ec8 <phase_6+0xb5>
 8048ed8:	c7 42 08 00 00 00 00 	movl   $0x0,0x8(%edx)
 8048edf:	be 05 00 00 00       	mov    $0x5,%esi
 8048ee4:	8b 43 08             	mov    0x8(%ebx),%eax
 8048ee7:	8b 00                	mov    (%eax),%eax
 8048ee9:	39 03                	cmp    %eax,(%ebx)
 8048eeb:	7d 05                	jge    8048ef2 <phase_6+0xdf>
 8048eed:	e8 43 03 00 00       	call   8049235 <explode_bomb>
 8048ef2:	8b 5b 08             	mov    0x8(%ebx),%ebx
 8048ef5:	83 ee 01             	sub    $0x1,%esi
 8048ef8:	75 ea                	jne    8048ee4 <phase_6+0xd1>
 8048efa:	83 c4 44             	add    $0x44,%esp
 8048efd:	5b                   	pop    %ebx
 8048efe:	5e                   	pop    %esi
 8048eff:	c3                   	ret    

08048f00 <sig_handler>:
 8048f00:	83 ec 1c             	sub    $0x1c,%esp
 8048f03:	c7 04 24 30 a2 04 08 	movl   $0x804a230,(%esp)
 8048f0a:	e8 a1 f8 ff ff       	call   80487b0 <puts@plt>
 8048f0f:	c7 04 24 03 00 00 00 	movl   $0x3,(%esp)
 8048f16:	e8 35 f8 ff ff       	call   8048750 <sleep@plt>
 8048f1b:	c7 04 24 8d a3 04 08 	movl   $0x804a38d,(%esp)
 8048f22:	e8 d9 f7 ff ff       	call   8048700 <printf@plt>
 8048f27:	a1 40 c7 04 08       	mov    0x804c740,%eax
 8048f2c:	89 04 24             	mov    %eax,(%esp)
 8048f2f:	e8 dc f7 ff ff       	call   8048710 <fflush@plt>
 8048f34:	c7 04 24 01 00 00 00 	movl   $0x1,(%esp)
 8048f3b:	e8 10 f8 ff ff       	call   8048750 <sleep@plt>
 8048f40:	c7 04 24 95 a3 04 08 	movl   $0x804a395,(%esp)
 8048f47:	e8 64 f8 ff ff       	call   80487b0 <puts@plt>
 8048f4c:	c7 04 24 10 00 00 00 	movl   $0x10,(%esp)
 8048f53:	e8 68 f8 ff ff       	call   80487c0 <exit@plt>

08048f58 <invalid_phase>:
 8048f58:	83 ec 1c             	sub    $0x1c,%esp
 8048f5b:	8b 44 24 20          	mov    0x20(%esp),%eax
 8048f5f:	89 44 24 04          	mov    %eax,0x4(%esp)
 8048f63:	c7 04 24 9d a3 04 08 	movl   $0x804a39d,(%esp)
 8048f6a:	e8 91 f7 ff ff       	call   8048700 <printf@plt>
 8048f6f:	c7 04 24 08 00 00 00 	movl   $0x8,(%esp)
 8048f76:	e8 45 f8 ff ff       	call   80487c0 <exit@plt>

08048f7b <string_length>:
 8048f7b:	8b 54 24 04          	mov    0x4(%esp),%edx
 8048f7f:	80 3a 00             	cmpb   $0x0,(%edx)
 8048f82:	74 10                	je     8048f94 <string_length+0x19>
 8048f84:	b8 00 00 00 00       	mov    $0x0,%eax
 8048f89:	83 c0 01             	add    $0x1,%eax
 8048f8c:	80 3c 02 00          	cmpb   $0x0,(%edx,%eax,1)
 8048f90:	75 f7                	jne    8048f89 <string_length+0xe>
 8048f92:	f3 c3                	repz ret 
 8048f94:	b8 00 00 00 00       	mov    $0x0,%eax
 8048f99:	c3                   	ret    

08048f9a <strings_not_equal>:
 8048f9a:	57                   	push   %edi
 8048f9b:	56                   	push   %esi
 8048f9c:	53                   	push   %ebx
 8048f9d:	83 ec 04             	sub    $0x4,%esp
 8048fa0:	8b 5c 24 14          	mov    0x14(%esp),%ebx
 8048fa4:	8b 74 24 18          	mov    0x18(%esp),%esi
 8048fa8:	89 1c 24             	mov    %ebx,(%esp)
 8048fab:	e8 cb ff ff ff       	call   8048f7b <string_length>
 8048fb0:	89 c7                	mov    %eax,%edi
 8048fb2:	89 34 24             	mov    %esi,(%esp)
 8048fb5:	e8 c1 ff ff ff       	call   8048f7b <string_length>
 8048fba:	ba 01 00 00 00       	mov    $0x1,%edx
 8048fbf:	39 c7                	cmp    %eax,%edi
 8048fc1:	75 3a                	jne    8048ffd <strings_not_equal+0x63>
 8048fc3:	0f b6 03             	movzbl (%ebx),%eax
 8048fc6:	84 c0                	test   %al,%al
 8048fc8:	74 20                	je     8048fea <strings_not_equal+0x50>
 8048fca:	3a 06                	cmp    (%esi),%al
 8048fcc:	74 08                	je     8048fd6 <strings_not_equal+0x3c>
 8048fce:	66 90                	xchg   %ax,%ax
 8048fd0:	eb 1f                	jmp    8048ff1 <strings_not_equal+0x57>
 8048fd2:	3a 06                	cmp    (%esi),%al
 8048fd4:	75 22                	jne    8048ff8 <strings_not_equal+0x5e>
 8048fd6:	83 c3 01             	add    $0x1,%ebx
 8048fd9:	83 c6 01             	add    $0x1,%esi
 8048fdc:	0f b6 03             	movzbl (%ebx),%eax
 8048fdf:	84 c0                	test   %al,%al
 8048fe1:	75 ef                	jne    8048fd2 <strings_not_equal+0x38>
 8048fe3:	ba 00 00 00 00       	mov    $0x0,%edx
 8048fe8:	eb 13                	jmp    8048ffd <strings_not_equal+0x63>
 8048fea:	ba 00 00 00 00       	mov    $0x0,%edx
 8048fef:	eb 0c                	jmp    8048ffd <strings_not_equal+0x63>
 8048ff1:	ba 01 00 00 00       	mov    $0x1,%edx
 8048ff6:	eb 05                	jmp    8048ffd <strings_not_equal+0x63>
 8048ff8:	ba 01 00 00 00       	mov    $0x1,%edx
 8048ffd:	89 d0                	mov    %edx,%eax
 8048fff:	83 c4 04             	add    $0x4,%esp
 8049002:	5b                   	pop    %ebx
 8049003:	5e                   	pop    %esi
 8049004:	5f                   	pop    %edi
 8049005:	c3                   	ret    

08049006 <initialize_bomb>:
 8049006:	56                   	push   %esi
 8049007:	53                   	push   %ebx
 8049008:	81 ec 54 20 00 00    	sub    $0x2054,%esp
 804900e:	c7 44 24 04 00 8f 04 	movl   $0x8048f00,0x4(%esp)
 8049015:	08 
 8049016:	c7 04 24 02 00 00 00 	movl   $0x2,(%esp)
 804901d:	e8 1e f7 ff ff       	call   8048740 <signal@plt>
 8049022:	c7 44 24 04 40 00 00 	movl   $0x40,0x4(%esp)
 8049029:	00 
 804902a:	8d 84 24 10 20 00 00 	lea    0x2010(%esp),%eax
 8049031:	89 04 24             	mov    %eax,(%esp)
 8049034:	e8 57 f7 ff ff       	call   8048790 <gethostname@plt>
 8049039:	85 c0                	test   %eax,%eax
 804903b:	75 17                	jne    8049054 <initialize_bomb+0x4e>
 804903d:	a1 20 c5 04 08       	mov    0x804c520,%eax
 8049042:	bb 00 00 00 00       	mov    $0x0,%ebx
 8049047:	8d b4 24 10 20 00 00 	lea    0x2010(%esp),%esi
 804904e:	85 c0                	test   %eax,%eax
 8049050:	75 1a                	jne    804906c <initialize_bomb+0x66>
 8049052:	eb 58                	jmp    80490ac <initialize_bomb+0xa6>
 8049054:	c7 04 24 68 a2 04 08 	movl   $0x804a268,(%esp)
 804905b:	e8 50 f7 ff ff       	call   80487b0 <puts@plt>
 8049060:	c7 04 24 08 00 00 00 	movl   $0x8,(%esp)
 8049067:	e8 54 f7 ff ff       	call   80487c0 <exit@plt>
 804906c:	89 74 24 04          	mov    %esi,0x4(%esp)
 8049070:	89 04 24             	mov    %eax,(%esp)
 8049073:	e8 88 f7 ff ff       	call   8048800 <strcasecmp@plt>
 8049078:	85 c0                	test   %eax,%eax
 804907a:	74 48                	je     80490c4 <initialize_bomb+0xbe>
 804907c:	83 c3 01             	add    $0x1,%ebx
 804907f:	8b 04 9d 20 c5 04 08 	mov    0x804c520(,%ebx,4),%eax
 8049086:	85 c0                	test   %eax,%eax
 8049088:	75 e2                	jne    804906c <initialize_bomb+0x66>
 804908a:	eb 20                	jmp    80490ac <initialize_bomb+0xa6>
 804908c:	8d 44 24 10          	lea    0x10(%esp),%eax
 8049090:	89 44 24 04          	mov    %eax,0x4(%esp)
 8049094:	c7 04 24 ae a3 04 08 	movl   $0x804a3ae,(%esp)
 804909b:	e8 60 f6 ff ff       	call   8048700 <printf@plt>
 80490a0:	c7 04 24 08 00 00 00 	movl   $0x8,(%esp)
 80490a7:	e8 14 f7 ff ff       	call   80487c0 <exit@plt>
 80490ac:	c7 04 24 a0 a2 04 08 	movl   $0x804a2a0,(%esp)
 80490b3:	e8 f8 f6 ff ff       	call   80487b0 <puts@plt>
 80490b8:	c7 04 24 08 00 00 00 	movl   $0x8,(%esp)
 80490bf:	e8 fc f6 ff ff       	call   80487c0 <exit@plt>
 80490c4:	8d 44 24 10          	lea    0x10(%esp),%eax
 80490c8:	89 04 24             	mov    %eax,(%esp)
 80490cb:	e8 ba 0c 00 00       	call   8049d8a <init_driver>
 80490d0:	85 c0                	test   %eax,%eax
 80490d2:	78 b8                	js     804908c <initialize_bomb+0x86>
 80490d4:	81 c4 54 20 00 00    	add    $0x2054,%esp
 80490da:	5b                   	pop    %ebx
 80490db:	5e                   	pop    %esi
 80490dc:	c3                   	ret    

080490dd <initialize_bomb_solve>:
 80490dd:	f3 c3                	repz ret 

080490df <blank_line>:
 80490df:	56                   	push   %esi
 80490e0:	53                   	push   %ebx
 80490e1:	83 ec 04             	sub    $0x4,%esp
 80490e4:	8b 5c 24 10          	mov    0x10(%esp),%ebx
 80490e8:	eb 16                	jmp    8049100 <blank_line+0x21>
 80490ea:	e8 a1 f7 ff ff       	call   8048890 <__ctype_b_loc@plt>
 80490ef:	83 c3 01             	add    $0x1,%ebx
 80490f2:	89 f2                	mov    %esi,%edx
 80490f4:	0f be f2             	movsbl %dl,%esi
 80490f7:	8b 00                	mov    (%eax),%eax
 80490f9:	f6 44 70 01 20       	testb  $0x20,0x1(%eax,%esi,2)
 80490fe:	74 10                	je     8049110 <blank_line+0x31>
 8049100:	0f b6 33             	movzbl (%ebx),%esi
 8049103:	89 f0                	mov    %esi,%eax
 8049105:	84 c0                	test   %al,%al
 8049107:	75 e1                	jne    80490ea <blank_line+0xb>
 8049109:	b8 01 00 00 00       	mov    $0x1,%eax
 804910e:	eb 05                	jmp    8049115 <blank_line+0x36>
 8049110:	b8 00 00 00 00       	mov    $0x0,%eax
 8049115:	83 c4 04             	add    $0x4,%esp
 8049118:	5b                   	pop    %ebx
 8049119:	5e                   	pop    %esi
 804911a:	c3                   	ret    

0804911b <skip>:
 804911b:	53                   	push   %ebx
 804911c:	83 ec 18             	sub    $0x18,%esp
 804911f:	a1 4c c7 04 08       	mov    0x804c74c,%eax
 8049124:	89 44 24 08          	mov    %eax,0x8(%esp)
 8049128:	c7 44 24 04 50 00 00 	movl   $0x50,0x4(%esp)
 804912f:	00 
 8049130:	a1 48 c7 04 08       	mov    0x804c748,%eax
 8049135:	8d 04 80             	lea    (%eax,%eax,4),%eax
 8049138:	c1 e0 04             	shl    $0x4,%eax
 804913b:	05 60 c7 04 08       	add    $0x804c760,%eax
 8049140:	89 04 24             	mov    %eax,(%esp)
 8049143:	e8 e8 f5 ff ff       	call   8048730 <fgets@plt>
 8049148:	89 c3                	mov    %eax,%ebx
 804914a:	85 c0                	test   %eax,%eax
 804914c:	74 0c                	je     804915a <skip+0x3f>
 804914e:	89 04 24             	mov    %eax,(%esp)
 8049151:	e8 89 ff ff ff       	call   80490df <blank_line>
 8049156:	85 c0                	test   %eax,%eax
 8049158:	75 c5                	jne    804911f <skip+0x4>
 804915a:	89 d8                	mov    %ebx,%eax
 804915c:	83 c4 18             	add    $0x18,%esp
 804915f:	5b                   	pop    %ebx
 8049160:	c3                   	ret    

08049161 <send_msg>:
 8049161:	57                   	push   %edi
 8049162:	53                   	push   %ebx
 8049163:	81 ec 24 40 00 00    	sub    $0x4024,%esp
 8049169:	8b 15 48 c7 04 08    	mov    0x804c748,%edx
 804916f:	8d 5c 92 fb          	lea    -0x5(%edx,%edx,4),%ebx
 8049173:	c1 e3 04             	shl    $0x4,%ebx
 8049176:	81 c3 60 c7 04 08    	add    $0x804c760,%ebx
 804917c:	89 df                	mov    %ebx,%edi
 804917e:	b8 00 00 00 00       	mov    $0x0,%eax
 8049183:	b9 ff ff ff ff       	mov    $0xffffffff,%ecx
 8049188:	f2 ae                	repnz scas %es:(%edi),%al
 804918a:	f7 d1                	not    %ecx
 804918c:	83 c1 63             	add    $0x63,%ecx
 804918f:	81 f9 00 20 00 00    	cmp    $0x2000,%ecx
 8049195:	76 18                	jbe    80491af <send_msg+0x4e>
 8049197:	c7 04 24 d8 a2 04 08 	movl   $0x804a2d8,(%esp)
 804919e:	e8 5d f5 ff ff       	call   8048700 <printf@plt>
 80491a3:	c7 04 24 08 00 00 00 	movl   $0x8,(%esp)
 80491aa:	e8 11 f6 ff ff       	call   80487c0 <exit@plt>
 80491af:	83 bc 24 30 40 00 00 	cmpl   $0x0,0x4030(%esp)
 80491b6:	00 
 80491b7:	b8 c8 a3 04 08       	mov    $0x804a3c8,%eax
 80491bc:	b9 d0 a3 04 08       	mov    $0x804a3d0,%ecx
 80491c1:	0f 44 c1             	cmove  %ecx,%eax
 80491c4:	89 5c 24 14          	mov    %ebx,0x14(%esp)
 80491c8:	89 54 24 10          	mov    %edx,0x10(%esp)
 80491cc:	89 44 24 0c          	mov    %eax,0xc(%esp)
 80491d0:	a1 00 c5 04 08       	mov    0x804c500,%eax
 80491d5:	89 44 24 08          	mov    %eax,0x8(%esp)
 80491d9:	c7 44 24 04 d9 a3 04 	movl   $0x804a3d9,0x4(%esp)
 80491e0:	08 
 80491e1:	8d 9c 24 20 20 00 00 	lea    0x2020(%esp),%ebx
 80491e8:	89 1c 24             	mov    %ebx,(%esp)
 80491eb:	e8 50 f6 ff ff       	call   8048840 <sprintf@plt>
 80491f0:	8d 44 24 20          	lea    0x20(%esp),%eax
 80491f4:	89 44 24 0c          	mov    %eax,0xc(%esp)
 80491f8:	c7 44 24 08 00 00 00 	movl   $0x0,0x8(%esp)
 80491ff:	00 
 8049200:	89 5c 24 04          	mov    %ebx,0x4(%esp)
 8049204:	c7 04 24 00 c1 04 08 	movl   $0x804c100,(%esp)
 804920b:	e8 52 0d 00 00       	call   8049f62 <driver_post>
 8049210:	85 c0                	test   %eax,%eax
 8049212:	79 18                	jns    804922c <send_msg+0xcb>
 8049214:	8d 44 24 20          	lea    0x20(%esp),%eax
 8049218:	89 04 24             	mov    %eax,(%esp)
 804921b:	e8 90 f5 ff ff       	call   80487b0 <puts@plt>
 8049220:	c7 04 24 00 00 00 00 	movl   $0x0,(%esp)
 8049227:	e8 94 f5 ff ff       	call   80487c0 <exit@plt>
 804922c:	81 c4 24 40 00 00    	add    $0x4024,%esp
 8049232:	5b                   	pop    %ebx
 8049233:	5f                   	pop    %edi
 8049234:	c3                   	ret    

08049235 <explode_bomb>:
 8049235:	83 ec 1c             	sub    $0x1c,%esp
 8049238:	c7 04 24 e5 a3 04 08 	movl   $0x804a3e5,(%esp)
 804923f:	e8 6c f5 ff ff       	call   80487b0 <puts@plt>
 8049244:	c7 04 24 ee a3 04 08 	movl   $0x804a3ee,(%esp)
 804924b:	e8 60 f5 ff ff       	call   80487b0 <puts@plt>
 8049250:	c7 04 24 00 00 00 00 	movl   $0x0,(%esp)
 8049257:	e8 05 ff ff ff       	call   8049161 <send_msg>
 804925c:	c7 04 24 fc a2 04 08 	movl   $0x804a2fc,(%esp)
 8049263:	e8 48 f5 ff ff       	call   80487b0 <puts@plt>
 8049268:	c7 04 24 08 00 00 00 	movl   $0x8,(%esp)
 804926f:	e8 4c f5 ff ff       	call   80487c0 <exit@plt>

08049274 <read_six_numbers>:
 8049274:	83 ec 2c             	sub    $0x2c,%esp
 8049277:	8b 44 24 34          	mov    0x34(%esp),%eax
 804927b:	8d 50 14             	lea    0x14(%eax),%edx
 804927e:	89 54 24 1c          	mov    %edx,0x1c(%esp)
 8049282:	8d 50 10             	lea    0x10(%eax),%edx
 8049285:	89 54 24 18          	mov    %edx,0x18(%esp)
 8049289:	8d 50 0c             	lea    0xc(%eax),%edx
 804928c:	89 54 24 14          	mov    %edx,0x14(%esp)
 8049290:	8d 50 08             	lea    0x8(%eax),%edx
 8049293:	89 54 24 10          	mov    %edx,0x10(%esp)
 8049297:	8d 50 04             	lea    0x4(%eax),%edx
 804929a:	89 54 24 0c          	mov    %edx,0xc(%esp)
 804929e:	89 44 24 08          	mov    %eax,0x8(%esp)
 80492a2:	c7 44 24 04 05 a4 04 	movl   $0x804a405,0x4(%esp)
 80492a9:	08 
 80492aa:	8b 44 24 30          	mov    0x30(%esp),%eax
 80492ae:	89 04 24             	mov    %eax,(%esp)
 80492b1:	e8 5a f5 ff ff       	call   8048810 <__isoc99_sscanf@plt>
 80492b6:	83 f8 05             	cmp    $0x5,%eax
 80492b9:	7f 05                	jg     80492c0 <read_six_numbers+0x4c>
 80492bb:	e8 75 ff ff ff       	call   8049235 <explode_bomb>
 80492c0:	83 c4 2c             	add    $0x2c,%esp
 80492c3:	c3                   	ret    

080492c4 <read_line>:
 80492c4:	57                   	push   %edi
 80492c5:	56                   	push   %esi
 80492c6:	53                   	push   %ebx
 80492c7:	83 ec 10             	sub    $0x10,%esp
 80492ca:	e8 4c fe ff ff       	call   804911b <skip>
 80492cf:	85 c0                	test   %eax,%eax
 80492d1:	75 6c                	jne    804933f <read_line+0x7b>
 80492d3:	a1 24 c7 04 08       	mov    0x804c724,%eax
 80492d8:	39 05 4c c7 04 08    	cmp    %eax,0x804c74c
 80492de:	75 18                	jne    80492f8 <read_line+0x34>
 80492e0:	c7 04 24 17 a4 04 08 	movl   $0x804a417,(%esp)
 80492e7:	e8 c4 f4 ff ff       	call   80487b0 <puts@plt>
 80492ec:	c7 04 24 08 00 00 00 	movl   $0x8,(%esp)
 80492f3:	e8 c8 f4 ff ff       	call   80487c0 <exit@plt>
 80492f8:	c7 04 24 35 a4 04 08 	movl   $0x804a435,(%esp)
 80492ff:	e8 9c f4 ff ff       	call   80487a0 <getenv@plt>
 8049304:	85 c0                	test   %eax,%eax
 8049306:	74 0c                	je     8049314 <read_line+0x50>
 8049308:	c7 04 24 00 00 00 00 	movl   $0x0,(%esp)
 804930f:	e8 ac f4 ff ff       	call   80487c0 <exit@plt>
 8049314:	a1 24 c7 04 08       	mov    0x804c724,%eax
 8049319:	a3 4c c7 04 08       	mov    %eax,0x804c74c
 804931e:	e8 f8 fd ff ff       	call   804911b <skip>
 8049323:	85 c0                	test   %eax,%eax
 8049325:	75 18                	jne    804933f <read_line+0x7b>
 8049327:	c7 04 24 17 a4 04 08 	movl   $0x804a417,(%esp)
 804932e:	e8 7d f4 ff ff       	call   80487b0 <puts@plt>
 8049333:	c7 04 24 00 00 00 00 	movl   $0x0,(%esp)
 804933a:	e8 81 f4 ff ff       	call   80487c0 <exit@plt>
 804933f:	8b 15 48 c7 04 08    	mov    0x804c748,%edx
 8049345:	8d 1c 92             	lea    (%edx,%edx,4),%ebx
 8049348:	c1 e3 04             	shl    $0x4,%ebx
 804934b:	81 c3 60 c7 04 08    	add    $0x804c760,%ebx
 8049351:	89 df                	mov    %ebx,%edi
 8049353:	b8 00 00 00 00       	mov    $0x0,%eax
 8049358:	b9 ff ff ff ff       	mov    $0xffffffff,%ecx
 804935d:	f2 ae                	repnz scas %es:(%edi),%al
 804935f:	f7 d1                	not    %ecx
 8049361:	83 e9 01             	sub    $0x1,%ecx
 8049364:	83 f9 4e             	cmp    $0x4e,%ecx
 8049367:	7e 6f                	jle    80493d8 <read_line+0x114>
 8049369:	c7 04 24 40 a4 04 08 	movl   $0x804a440,(%esp)
 8049370:	e8 3b f4 ff ff       	call   80487b0 <puts@plt>
 8049375:	a1 48 c7 04 08       	mov    0x804c748,%eax
 804937a:	8d 50 01             	lea    0x1(%eax),%edx
 804937d:	89 15 48 c7 04 08    	mov    %edx,0x804c748
 8049383:	6b c0 50             	imul   $0x50,%eax,%eax
 8049386:	8d 90 60 c7 04 08    	lea    0x804c760(%eax),%edx
 804938c:	89 d7                	mov    %edx,%edi
 804938e:	be 5b a4 04 08       	mov    $0x804a45b,%esi
 8049393:	b8 10 00 00 00       	mov    $0x10,%eax
 8049398:	f6 c2 01             	test   $0x1,%dl
 804939b:	74 03                	je     80493a0 <read_line+0xdc>
 804939d:	a4                   	movsb  %ds:(%esi),%es:(%edi)
 804939e:	b0 0f                	mov    $0xf,%al
 80493a0:	f7 c7 02 00 00 00    	test   $0x2,%edi
 80493a6:	74 05                	je     80493ad <read_line+0xe9>
 80493a8:	66 a5                	movsw  %ds:(%esi),%es:(%edi)
 80493aa:	83 e8 02             	sub    $0x2,%eax
 80493ad:	89 c1                	mov    %eax,%ecx
 80493af:	c1 e9 02             	shr    $0x2,%ecx
 80493b2:	f3 a5                	rep movsl %ds:(%esi),%es:(%edi)
 80493b4:	ba 00 00 00 00       	mov    $0x0,%edx
 80493b9:	a8 02                	test   $0x2,%al
 80493bb:	74 0b                	je     80493c8 <read_line+0x104>
 80493bd:	0f b7 16             	movzwl (%esi),%edx
 80493c0:	66 89 17             	mov    %dx,(%edi)
 80493c3:	ba 02 00 00 00       	mov    $0x2,%edx
 80493c8:	a8 01                	test   $0x1,%al
 80493ca:	74 07                	je     80493d3 <read_line+0x10f>
 80493cc:	0f b6 04 16          	movzbl (%esi,%edx,1),%eax
 80493d0:	88 04 17             	mov    %al,(%edi,%edx,1)
 80493d3:	e8 5d fe ff ff       	call   8049235 <explode_bomb>
 80493d8:	8d 04 92             	lea    (%edx,%edx,4),%eax
 80493db:	c1 e0 04             	shl    $0x4,%eax
 80493de:	c6 84 01 5f c7 04 08 	movb   $0x0,0x804c75f(%ecx,%eax,1)
 80493e5:	00 
 80493e6:	83 c2 01             	add    $0x1,%edx
 80493e9:	89 15 48 c7 04 08    	mov    %edx,0x804c748
 80493ef:	89 d8                	mov    %ebx,%eax
 80493f1:	83 c4 10             	add    $0x10,%esp
 80493f4:	5b                   	pop    %ebx
 80493f5:	5e                   	pop    %esi
 80493f6:	5f                   	pop    %edi
 80493f7:	c3                   	ret    

080493f8 <phase_defused>:
 80493f8:	83 ec 1c             	sub    $0x1c,%esp
 80493fb:	c7 04 24 01 00 00 00 	movl   $0x1,(%esp)
 8049402:	e8 5a fd ff ff       	call   8049161 <send_msg>
 8049407:	83 3d 48 c7 04 08 09 	cmpl   $0x9,0x804c748
 804940e:	75 18                	jne    8049428 <phase_defused+0x30>
 8049410:	c7 04 24 20 a3 04 08 	movl   $0x804a320,(%esp)
 8049417:	e8 94 f3 ff ff       	call   80487b0 <puts@plt>
 804941c:	c7 04 24 4c a3 04 08 	movl   $0x804a34c,(%esp)
 8049423:	e8 88 f3 ff ff       	call   80487b0 <puts@plt>
 8049428:	83 c4 1c             	add    $0x1c,%esp
 804942b:	c3                   	ret    
 804942c:	66 90                	xchg   %ax,%ax
 804942e:	66 90                	xchg   %ax,%ax

08049430 <sigalrm_handler>:
 8049430:	83 ec 1c             	sub    $0x1c,%esp
 8049433:	c7 44 24 08 00 00 00 	movl   $0x0,0x8(%esp)
 804943a:	00 
 804943b:	c7 44 24 04 18 a8 04 	movl   $0x804a818,0x4(%esp)
 8049442:	08 
 8049443:	a1 20 c7 04 08       	mov    0x804c720,%eax
 8049448:	89 04 24             	mov    %eax,(%esp)
 804944b:	e8 90 f3 ff ff       	call   80487e0 <fprintf@plt>
 8049450:	c7 04 24 01 00 00 00 	movl   $0x1,(%esp)
 8049457:	e8 64 f3 ff ff       	call   80487c0 <exit@plt>

0804945c <rio_readlineb>:
 804945c:	55                   	push   %ebp
 804945d:	57                   	push   %edi
 804945e:	56                   	push   %esi
 804945f:	53                   	push   %ebx
 8049460:	83 ec 3c             	sub    $0x3c,%esp
 8049463:	89 d5                	mov    %edx,%ebp
 8049465:	83 f9 01             	cmp    $0x1,%ecx
 8049468:	0f 86 c6 00 00 00    	jbe    8049534 <rio_readlineb+0xd8>
 804946e:	89 c3                	mov    %eax,%ebx
 8049470:	89 4c 24 1c          	mov    %ecx,0x1c(%esp)
 8049474:	c7 44 24 10 01 00 00 	movl   $0x1,0x10(%esp)
 804947b:	00 
 804947c:	8d 78 0c             	lea    0xc(%eax),%edi
 804947f:	eb 34                	jmp    80494b5 <rio_readlineb+0x59>
 8049481:	c7 44 24 08 00 20 00 	movl   $0x2000,0x8(%esp)
 8049488:	00 
 8049489:	89 7c 24 04          	mov    %edi,0x4(%esp)
 804948d:	8b 03                	mov    (%ebx),%eax
 804948f:	89 04 24             	mov    %eax,(%esp)
 8049492:	e8 59 f2 ff ff       	call   80486f0 <read@plt>
 8049497:	89 43 04             	mov    %eax,0x4(%ebx)
 804949a:	85 c0                	test   %eax,%eax
 804949c:	79 0f                	jns    80494ad <rio_readlineb+0x51>
 804949e:	e8 8d f3 ff ff       	call   8048830 <__errno_location@plt>
 80494a3:	83 38 04             	cmpl   $0x4,(%eax)
 80494a6:	74 0d                	je     80494b5 <rio_readlineb+0x59>
 80494a8:	e9 99 00 00 00       	jmp    8049546 <rio_readlineb+0xea>
 80494ad:	85 c0                	test   %eax,%eax
 80494af:	90                   	nop
 80494b0:	74 66                	je     8049518 <rio_readlineb+0xbc>
 80494b2:	89 7b 08             	mov    %edi,0x8(%ebx)
 80494b5:	8b 73 04             	mov    0x4(%ebx),%esi
 80494b8:	85 f6                	test   %esi,%esi
 80494ba:	7e c5                	jle    8049481 <rio_readlineb+0x25>
 80494bc:	85 f6                	test   %esi,%esi
 80494be:	0f 95 c0             	setne  %al
 80494c1:	0f b6 c0             	movzbl %al,%eax
 80494c4:	89 44 24 14          	mov    %eax,0x14(%esp)
 80494c8:	8b 4b 08             	mov    0x8(%ebx),%ecx
 80494cb:	89 44 24 08          	mov    %eax,0x8(%esp)
 80494cf:	89 4c 24 18          	mov    %ecx,0x18(%esp)
 80494d3:	89 4c 24 04          	mov    %ecx,0x4(%esp)
 80494d7:	8d 54 24 2f          	lea    0x2f(%esp),%edx
 80494db:	89 14 24             	mov    %edx,(%esp)
 80494de:	e8 3d f2 ff ff       	call   8048720 <memcpy@plt>
 80494e3:	8b 4c 24 18          	mov    0x18(%esp),%ecx
 80494e7:	8b 54 24 14          	mov    0x14(%esp),%edx
 80494eb:	01 d1                	add    %edx,%ecx
 80494ed:	89 4b 08             	mov    %ecx,0x8(%ebx)
 80494f0:	29 d6                	sub    %edx,%esi
 80494f2:	89 73 04             	mov    %esi,0x4(%ebx)
 80494f5:	83 fa 01             	cmp    $0x1,%edx
 80494f8:	75 11                	jne    804950b <rio_readlineb+0xaf>
 80494fa:	83 c5 01             	add    $0x1,%ebp
 80494fd:	0f b6 44 24 2f       	movzbl 0x2f(%esp),%eax
 8049502:	88 45 ff             	mov    %al,-0x1(%ebp)
 8049505:	3c 0a                	cmp    $0xa,%al
 8049507:	75 1a                	jne    8049523 <rio_readlineb+0xc7>
 8049509:	eb 31                	jmp    804953c <rio_readlineb+0xe0>
 804950b:	83 7c 24 14 00       	cmpl   $0x0,0x14(%esp)
 8049510:	75 3b                	jne    804954d <rio_readlineb+0xf1>
 8049512:	8b 44 24 10          	mov    0x10(%esp),%eax
 8049516:	eb 04                	jmp    804951c <rio_readlineb+0xc0>
 8049518:	8b 44 24 10          	mov    0x10(%esp),%eax
 804951c:	83 f8 01             	cmp    $0x1,%eax
 804951f:	75 1b                	jne    804953c <rio_readlineb+0xe0>
 8049521:	eb 31                	jmp    8049554 <rio_readlineb+0xf8>
 8049523:	83 44 24 10 01       	addl   $0x1,0x10(%esp)
 8049528:	8b 44 24 1c          	mov    0x1c(%esp),%eax
 804952c:	39 44 24 10          	cmp    %eax,0x10(%esp)
 8049530:	74 0a                	je     804953c <rio_readlineb+0xe0>
 8049532:	eb 81                	jmp    80494b5 <rio_readlineb+0x59>
 8049534:	c7 44 24 10 01 00 00 	movl   $0x1,0x10(%esp)
 804953b:	00 
 804953c:	c6 45 00 00          	movb   $0x0,0x0(%ebp)
 8049540:	8b 44 24 10          	mov    0x10(%esp),%eax
 8049544:	eb 13                	jmp    8049559 <rio_readlineb+0xfd>
 8049546:	b8 ff ff ff ff       	mov    $0xffffffff,%eax
 804954b:	eb 0c                	jmp    8049559 <rio_readlineb+0xfd>
 804954d:	b8 ff ff ff ff       	mov    $0xffffffff,%eax
 8049552:	eb 05                	jmp    8049559 <rio_readlineb+0xfd>
 8049554:	b8 00 00 00 00       	mov    $0x0,%eax
 8049559:	83 c4 3c             	add    $0x3c,%esp
 804955c:	5b                   	pop    %ebx
 804955d:	5e                   	pop    %esi
 804955e:	5f                   	pop    %edi
 804955f:	5d                   	pop    %ebp
 8049560:	c3                   	ret    

08049561 <submitr>:
 8049561:	55                   	push   %ebp
 8049562:	57                   	push   %edi
 8049563:	56                   	push   %esi
 8049564:	53                   	push   %ebx
 8049565:	81 ec 5c a0 00 00    	sub    $0xa05c,%esp
 804956b:	8b 9c 24 84 a0 00 00 	mov    0xa084(%esp),%ebx
 8049572:	c7 84 24 30 20 00 00 	movl   $0x0,0x2030(%esp)
 8049579:	00 00 00 00 
 804957d:	c7 44 24 08 00 00 00 	movl   $0x0,0x8(%esp)
 8049584:	00 
 8049585:	c7 44 24 04 01 00 00 	movl   $0x1,0x4(%esp)
 804958c:	00 
 804958d:	c7 04 24 02 00 00 00 	movl   $0x2,(%esp)
 8049594:	e8 b7 f2 ff ff       	call   8048850 <socket@plt>
 8049599:	89 c5                	mov    %eax,%ebp
 804959b:	85 c0                	test   %eax,%eax
 804959d:	79 55                	jns    80495f4 <submitr+0x93>
 804959f:	8b 84 24 88 a0 00 00 	mov    0xa088(%esp),%eax
 80495a6:	c7 00 45 72 72 6f    	movl   $0x6f727245,(%eax)
 80495ac:	c7 40 04 72 3a 20 43 	movl   $0x43203a72,0x4(%eax)
 80495b3:	c7 40 08 6c 69 65 6e 	movl   $0x6e65696c,0x8(%eax)
 80495ba:	c7 40 0c 74 20 75 6e 	movl   $0x6e752074,0xc(%eax)
 80495c1:	c7 40 10 61 62 6c 65 	movl   $0x656c6261,0x10(%eax)
 80495c8:	c7 40 14 20 74 6f 20 	movl   $0x206f7420,0x14(%eax)
 80495cf:	c7 40 18 63 72 65 61 	movl   $0x61657263,0x18(%eax)
 80495d6:	c7 40 1c 74 65 20 73 	movl   $0x73206574,0x1c(%eax)
 80495dd:	c7 40 20 6f 63 6b 65 	movl   $0x656b636f,0x20(%eax)
 80495e4:	66 c7 40 24 74 00    	movw   $0x74,0x24(%eax)
 80495ea:	b8 ff ff ff ff       	mov    $0xffffffff,%eax
 80495ef:	e9 54 07 00 00       	jmp    8049d48 <submitr+0x7e7>
 80495f4:	8b 84 24 70 a0 00 00 	mov    0xa070(%esp),%eax
 80495fb:	89 04 24             	mov    %eax,(%esp)
 80495fe:	e8 5d f2 ff ff       	call   8048860 <gethostbyname@plt>
 8049603:	85 c0                	test   %eax,%eax
 8049605:	75 6f                	jne    8049676 <submitr+0x115>
 8049607:	8b 84 24 88 a0 00 00 	mov    0xa088(%esp),%eax
 804960e:	c7 00 45 72 72 6f    	movl   $0x6f727245,(%eax)
 8049614:	c7 40 04 72 3a 20 44 	movl   $0x44203a72,0x4(%eax)
 804961b:	c7 40 08 4e 53 20 69 	movl   $0x6920534e,0x8(%eax)
 8049622:	c7 40 0c 73 20 75 6e 	movl   $0x6e752073,0xc(%eax)
 8049629:	c7 40 10 61 62 6c 65 	movl   $0x656c6261,0x10(%eax)
 8049630:	c7 40 14 20 74 6f 20 	movl   $0x206f7420,0x14(%eax)
 8049637:	c7 40 18 72 65 73 6f 	movl   $0x6f736572,0x18(%eax)
 804963e:	c7 40 1c 6c 76 65 20 	movl   $0x2065766c,0x1c(%eax)
 8049645:	c7 40 20 73 65 72 76 	movl   $0x76726573,0x20(%eax)
 804964c:	c7 40 24 65 72 20 61 	movl   $0x61207265,0x24(%eax)
 8049653:	c7 40 28 64 64 72 65 	movl   $0x65726464,0x28(%eax)
 804965a:	66 c7 40 2c 73 73    	movw   $0x7373,0x2c(%eax)
 8049660:	c6 40 2e 00          	movb   $0x0,0x2e(%eax)
 8049664:	89 2c 24             	mov    %ebp,(%esp)
 8049667:	e8 14 f2 ff ff       	call   8048880 <close@plt>
 804966c:	b8 ff ff ff ff       	mov    $0xffffffff,%eax
 8049671:	e9 d2 06 00 00       	jmp    8049d48 <submitr+0x7e7>
 8049676:	8d b4 24 40 a0 00 00 	lea    0xa040(%esp),%esi
 804967d:	c7 84 24 40 a0 00 00 	movl   $0x0,0xa040(%esp)
 8049684:	00 00 00 00 
 8049688:	c7 84 24 44 a0 00 00 	movl   $0x0,0xa044(%esp)
 804968f:	00 00 00 00 
 8049693:	c7 84 24 48 a0 00 00 	movl   $0x0,0xa048(%esp)
 804969a:	00 00 00 00 
 804969e:	c7 84 24 4c a0 00 00 	movl   $0x0,0xa04c(%esp)
 80496a5:	00 00 00 00 
 80496a9:	66 c7 84 24 40 a0 00 	movw   $0x2,0xa040(%esp)
 80496b0:	00 02 00 
 80496b3:	8b 50 0c             	mov    0xc(%eax),%edx
 80496b6:	89 54 24 08          	mov    %edx,0x8(%esp)
 80496ba:	8d 94 24 44 a0 00 00 	lea    0xa044(%esp),%edx
 80496c1:	89 54 24 04          	mov    %edx,0x4(%esp)
 80496c5:	8b 40 10             	mov    0x10(%eax),%eax
 80496c8:	8b 00                	mov    (%eax),%eax
 80496ca:	89 04 24             	mov    %eax,(%esp)
 80496cd:	e8 9e f0 ff ff       	call   8048770 <bcopy@plt>
 80496d2:	0f b7 84 24 74 a0 00 	movzwl 0xa074(%esp),%eax
 80496d9:	00 
 80496da:	66 c1 c8 08          	ror    $0x8,%ax
 80496de:	66 89 84 24 42 a0 00 	mov    %ax,0xa042(%esp)
 80496e5:	00 
 80496e6:	c7 44 24 08 10 00 00 	movl   $0x10,0x8(%esp)
 80496ed:	00 
 80496ee:	89 74 24 04          	mov    %esi,0x4(%esp)
 80496f2:	89 2c 24             	mov    %ebp,(%esp)
 80496f5:	e8 76 f1 ff ff       	call   8048870 <connect@plt>
 80496fa:	85 c0                	test   %eax,%eax
 80496fc:	79 61                	jns    804975f <submitr+0x1fe>
 80496fe:	8b 84 24 88 a0 00 00 	mov    0xa088(%esp),%eax
 8049705:	c7 00 45 72 72 6f    	movl   $0x6f727245,(%eax)
 804970b:	c7 40 04 72 3a 20 55 	movl   $0x55203a72,0x4(%eax)
 8049712:	c7 40 08 6e 61 62 6c 	movl   $0x6c62616e,0x8(%eax)
 8049719:	c7 40 0c 65 20 74 6f 	movl   $0x6f742065,0xc(%eax)
 8049720:	c7 40 10 20 63 6f 6e 	movl   $0x6e6f6320,0x10(%eax)
 8049727:	c7 40 14 6e 65 63 74 	movl   $0x7463656e,0x14(%eax)
 804972e:	c7 40 18 20 74 6f 20 	movl   $0x206f7420,0x18(%eax)
 8049735:	c7 40 1c 74 68 65 20 	movl   $0x20656874,0x1c(%eax)
 804973c:	c7 40 20 73 65 72 76 	movl   $0x76726573,0x20(%eax)
 8049743:	66 c7 40 24 65 72    	movw   $0x7265,0x24(%eax)
 8049749:	c6 40 26 00          	movb   $0x0,0x26(%eax)
 804974d:	89 2c 24             	mov    %ebp,(%esp)
 8049750:	e8 2b f1 ff ff       	call   8048880 <close@plt>
 8049755:	b8 ff ff ff ff       	mov    $0xffffffff,%eax
 804975a:	e9 e9 05 00 00       	jmp    8049d48 <submitr+0x7e7>
 804975f:	ba ff ff ff ff       	mov    $0xffffffff,%edx
 8049764:	89 df                	mov    %ebx,%edi
 8049766:	b8 00 00 00 00       	mov    $0x0,%eax
 804976b:	89 d1                	mov    %edx,%ecx
 804976d:	f2 ae                	repnz scas %es:(%edi),%al
 804976f:	f7 d1                	not    %ecx
 8049771:	89 ce                	mov    %ecx,%esi
 8049773:	8b bc 24 78 a0 00 00 	mov    0xa078(%esp),%edi
 804977a:	89 d1                	mov    %edx,%ecx
 804977c:	f2 ae                	repnz scas %es:(%edi),%al
 804977e:	89 4c 24 18          	mov    %ecx,0x18(%esp)
 8049782:	8b bc 24 7c a0 00 00 	mov    0xa07c(%esp),%edi
 8049789:	89 d1                	mov    %edx,%ecx
 804978b:	f2 ae                	repnz scas %es:(%edi),%al
 804978d:	f7 d1                	not    %ecx
 804978f:	89 4c 24 1c          	mov    %ecx,0x1c(%esp)
 8049793:	8b bc 24 80 a0 00 00 	mov    0xa080(%esp),%edi
 804979a:	89 d1                	mov    %edx,%ecx
 804979c:	f2 ae                	repnz scas %es:(%edi),%al
 804979e:	8b 44 24 1c          	mov    0x1c(%esp),%eax
 80497a2:	2b 44 24 18          	sub    0x18(%esp),%eax
 80497a6:	29 c8                	sub    %ecx,%eax
 80497a8:	89 c2                	mov    %eax,%edx
 80497aa:	8d 44 76 fd          	lea    -0x3(%esi,%esi,2),%eax
 80497ae:	8d 44 02 7b          	lea    0x7b(%edx,%eax,1),%eax
 80497b2:	3d 00 20 00 00       	cmp    $0x2000,%eax
 80497b7:	76 7a                	jbe    8049833 <submitr+0x2d2>
 80497b9:	8b 84 24 88 a0 00 00 	mov    0xa088(%esp),%eax
 80497c0:	c7 00 45 72 72 6f    	movl   $0x6f727245,(%eax)
 80497c6:	c7 40 04 72 3a 20 52 	movl   $0x52203a72,0x4(%eax)
 80497cd:	c7 40 08 65 73 75 6c 	movl   $0x6c757365,0x8(%eax)
 80497d4:	c7 40 0c 74 20 73 74 	movl   $0x74732074,0xc(%eax)
 80497db:	c7 40 10 72 69 6e 67 	movl   $0x676e6972,0x10(%eax)
 80497e2:	c7 40 14 20 74 6f 6f 	movl   $0x6f6f7420,0x14(%eax)
 80497e9:	c7 40 18 20 6c 61 72 	movl   $0x72616c20,0x18(%eax)
 80497f0:	c7 40 1c 67 65 2e 20 	movl   $0x202e6567,0x1c(%eax)
 80497f7:	c7 40 20 49 6e 63 72 	movl   $0x72636e49,0x20(%eax)
 80497fe:	c7 40 24 65 61 73 65 	movl   $0x65736165,0x24(%eax)
 8049805:	c7 40 28 20 53 55 42 	movl   $0x42555320,0x28(%eax)
 804980c:	c7 40 2c 4d 49 54 52 	movl   $0x5254494d,0x2c(%eax)
 8049813:	c7 40 30 5f 4d 41 58 	movl   $0x58414d5f,0x30(%eax)
 804981a:	c7 40 34 42 55 46 00 	movl   $0x465542,0x34(%eax)
 8049821:	89 2c 24             	mov    %ebp,(%esp)
 8049824:	e8 57 f0 ff ff       	call   8048880 <close@plt>
 8049829:	b8 ff ff ff ff       	mov    $0xffffffff,%eax
 804982e:	e9 15 05 00 00       	jmp    8049d48 <submitr+0x7e7>
 8049833:	8d 94 24 34 40 00 00 	lea    0x4034(%esp),%edx
 804983a:	b9 00 08 00 00       	mov    $0x800,%ecx
 804983f:	b8 00 00 00 00       	mov    $0x0,%eax
 8049844:	89 d7                	mov    %edx,%edi
 8049846:	f3 ab                	rep stos %eax,%es:(%edi)
 8049848:	89 df                	mov    %ebx,%edi
 804984a:	b9 ff ff ff ff       	mov    $0xffffffff,%ecx
 804984f:	f2 ae                	repnz scas %es:(%edi),%al
 8049851:	f7 d1                	not    %ecx
 8049853:	83 e9 01             	sub    $0x1,%ecx
 8049856:	89 ce                	mov    %ecx,%esi
 8049858:	0f 84 00 04 00 00    	je     8049c5e <submitr+0x6fd>
 804985e:	89 d7                	mov    %edx,%edi
 8049860:	0f b6 03             	movzbl (%ebx),%eax
 8049863:	3c 2a                	cmp    $0x2a,%al
 8049865:	74 21                	je     8049888 <submitr+0x327>
 8049867:	8d 50 d3             	lea    -0x2d(%eax),%edx
 804986a:	80 fa 01             	cmp    $0x1,%dl
 804986d:	76 19                	jbe    8049888 <submitr+0x327>
 804986f:	3c 5f                	cmp    $0x5f,%al
 8049871:	74 15                	je     8049888 <submitr+0x327>
 8049873:	8d 50 d0             	lea    -0x30(%eax),%edx
 8049876:	80 fa 09             	cmp    $0x9,%dl
 8049879:	76 0d                	jbe    8049888 <submitr+0x327>
 804987b:	89 c2                	mov    %eax,%edx
 804987d:	83 e2 df             	and    $0xffffffdf,%edx
 8049880:	83 ea 41             	sub    $0x41,%edx
 8049883:	80 fa 19             	cmp    $0x19,%dl
 8049886:	77 07                	ja     804988f <submitr+0x32e>
 8049888:	8d 57 01             	lea    0x1(%edi),%edx
 804988b:	88 07                	mov    %al,(%edi)
 804988d:	eb 51                	jmp    80498e0 <submitr+0x37f>
 804988f:	3c 20                	cmp    $0x20,%al
 8049891:	75 08                	jne    804989b <submitr+0x33a>
 8049893:	8d 57 01             	lea    0x1(%edi),%edx
 8049896:	c6 07 2b             	movb   $0x2b,(%edi)
 8049899:	eb 45                	jmp    80498e0 <submitr+0x37f>
 804989b:	8d 50 e0             	lea    -0x20(%eax),%edx
 804989e:	80 fa 5f             	cmp    $0x5f,%dl
 80498a1:	76 08                	jbe    80498ab <submitr+0x34a>
 80498a3:	3c 09                	cmp    $0x9,%al
 80498a5:	0f 85 1d 04 00 00    	jne    8049cc8 <submitr+0x767>
 80498ab:	0f b6 c0             	movzbl %al,%eax
 80498ae:	89 44 24 08          	mov    %eax,0x8(%esp)
 80498b2:	c7 44 24 04 24 a9 04 	movl   $0x804a924,0x4(%esp)
 80498b9:	08 
 80498ba:	8d 44 24 28          	lea    0x28(%esp),%eax
 80498be:	89 04 24             	mov    %eax,(%esp)
 80498c1:	e8 7a ef ff ff       	call   8048840 <sprintf@plt>
 80498c6:	0f b6 44 24 28       	movzbl 0x28(%esp),%eax
 80498cb:	88 07                	mov    %al,(%edi)
 80498cd:	0f b6 44 24 29       	movzbl 0x29(%esp),%eax
 80498d2:	88 47 01             	mov    %al,0x1(%edi)
 80498d5:	8d 57 03             	lea    0x3(%edi),%edx
 80498d8:	0f b6 44 24 2a       	movzbl 0x2a(%esp),%eax
 80498dd:	88 47 02             	mov    %al,0x2(%edi)
 80498e0:	83 c3 01             	add    $0x1,%ebx
 80498e3:	83 ee 01             	sub    $0x1,%esi
 80498e6:	0f 84 72 03 00 00    	je     8049c5e <submitr+0x6fd>
 80498ec:	89 d7                	mov    %edx,%edi
 80498ee:	e9 6d ff ff ff       	jmp    8049860 <submitr+0x2ff>
 80498f3:	89 5c 24 08          	mov    %ebx,0x8(%esp)
 80498f7:	89 74 24 04          	mov    %esi,0x4(%esp)
 80498fb:	89 2c 24             	mov    %ebp,(%esp)
 80498fe:	e8 ed ee ff ff       	call   80487f0 <write@plt>
 8049903:	85 c0                	test   %eax,%eax
 8049905:	7f 10                	jg     8049917 <submitr+0x3b6>
 8049907:	e8 24 ef ff ff       	call   8048830 <__errno_location@plt>
 804990c:	83 38 04             	cmpl   $0x4,(%eax)
 804990f:	90                   	nop
 8049910:	75 0f                	jne    8049921 <submitr+0x3c0>
 8049912:	b8 00 00 00 00       	mov    $0x0,%eax
 8049917:	01 c6                	add    %eax,%esi
 8049919:	29 c3                	sub    %eax,%ebx
 804991b:	75 d6                	jne    80498f3 <submitr+0x392>
 804991d:	85 ff                	test   %edi,%edi
 804991f:	79 65                	jns    8049986 <submitr+0x425>
 8049921:	8b 84 24 88 a0 00 00 	mov    0xa088(%esp),%eax
 8049928:	c7 00 45 72 72 6f    	movl   $0x6f727245,(%eax)
 804992e:	c7 40 04 72 3a 20 43 	movl   $0x43203a72,0x4(%eax)
 8049935:	c7 40 08 6c 69 65 6e 	movl   $0x6e65696c,0x8(%eax)
 804993c:	c7 40 0c 74 20 75 6e 	movl   $0x6e752074,0xc(%eax)
 8049943:	c7 40 10 61 62 6c 65 	movl   $0x656c6261,0x10(%eax)
 804994a:	c7 40 14 20 74 6f 20 	movl   $0x206f7420,0x14(%eax)
 8049951:	c7 40 18 77 72 69 74 	movl   $0x74697277,0x18(%eax)
 8049958:	c7 40 1c 65 20 74 6f 	movl   $0x6f742065,0x1c(%eax)
 804995f:	c7 40 20 20 74 68 65 	movl   $0x65687420,0x20(%eax)
 8049966:	c7 40 24 20 73 65 72 	movl   $0x72657320,0x24(%eax)
 804996d:	c7 40 28 76 65 72 00 	movl   $0x726576,0x28(%eax)
 8049974:	89 2c 24             	mov    %ebp,(%esp)
 8049977:	e8 04 ef ff ff       	call   8048880 <close@plt>
 804997c:	b8 ff ff ff ff       	mov    $0xffffffff,%eax
 8049981:	e9 c2 03 00 00       	jmp    8049d48 <submitr+0x7e7>
 8049986:	89 ac 24 34 80 00 00 	mov    %ebp,0x8034(%esp)
 804998d:	c7 84 24 38 80 00 00 	movl   $0x0,0x8038(%esp)
 8049994:	00 00 00 00 
 8049998:	8d 84 24 40 80 00 00 	lea    0x8040(%esp),%eax
 804999f:	89 84 24 3c 80 00 00 	mov    %eax,0x803c(%esp)
 80499a6:	b9 00 20 00 00       	mov    $0x2000,%ecx
 80499ab:	8d 94 24 34 60 00 00 	lea    0x6034(%esp),%edx
 80499b2:	8d 84 24 34 80 00 00 	lea    0x8034(%esp),%eax
 80499b9:	e8 9e fa ff ff       	call   804945c <rio_readlineb>
 80499be:	85 c0                	test   %eax,%eax
 80499c0:	7f 79                	jg     8049a3b <submitr+0x4da>
 80499c2:	8b 84 24 88 a0 00 00 	mov    0xa088(%esp),%eax
 80499c9:	c7 00 45 72 72 6f    	movl   $0x6f727245,(%eax)
 80499cf:	c7 40 04 72 3a 20 43 	movl   $0x43203a72,0x4(%eax)
 80499d6:	c7 40 08 6c 69 65 6e 	movl   $0x6e65696c,0x8(%eax)
 80499dd:	c7 40 0c 74 20 75 6e 	movl   $0x6e752074,0xc(%eax)
 80499e4:	c7 40 10 61 62 6c 65 	movl   $0x656c6261,0x10(%eax)
 80499eb:	c7 40 14 20 74 6f 20 	movl   $0x206f7420,0x14(%eax)
 80499f2:	c7 40 18 72 65 61 64 	movl   $0x64616572,0x18(%eax)
 80499f9:	c7 40 1c 20 66 69 72 	movl   $0x72696620,0x1c(%eax)
 8049a00:	c7 40 20 73 74 20 68 	movl   $0x68207473,0x20(%eax)
 8049a07:	c7 40 24 65 61 64 65 	movl   $0x65646165,0x24(%eax)
 8049a0e:	c7 40 28 72 20 66 72 	movl   $0x72662072,0x28(%eax)
 8049a15:	c7 40 2c 6f 6d 20 73 	movl   $0x73206d6f,0x2c(%eax)
 8049a1c:	c7 40 30 65 72 76 65 	movl   $0x65767265,0x30(%eax)
 8049a23:	66 c7 40 34 72 00    	movw   $0x72,0x34(%eax)
 8049a29:	89 2c 24             	mov    %ebp,(%esp)
 8049a2c:	e8 4f ee ff ff       	call   8048880 <close@plt>
 8049a31:	b8 ff ff ff ff       	mov    $0xffffffff,%eax
 8049a36:	e9 0d 03 00 00       	jmp    8049d48 <submitr+0x7e7>
 8049a3b:	8d 44 24 30          	lea    0x30(%esp),%eax
 8049a3f:	89 44 24 10          	mov    %eax,0x10(%esp)
 8049a43:	8d 84 24 30 20 00 00 	lea    0x2030(%esp),%eax
 8049a4a:	89 44 24 0c          	mov    %eax,0xc(%esp)
 8049a4e:	8d 84 24 34 20 00 00 	lea    0x2034(%esp),%eax
 8049a55:	89 44 24 08          	mov    %eax,0x8(%esp)
 8049a59:	c7 44 24 04 2b a9 04 	movl   $0x804a92b,0x4(%esp)
 8049a60:	08 
 8049a61:	8d 84 24 34 60 00 00 	lea    0x6034(%esp),%eax
 8049a68:	89 04 24             	mov    %eax,(%esp)
 8049a6b:	e8 a0 ed ff ff       	call   8048810 <__isoc99_sscanf@plt>
 8049a70:	8b 84 24 30 20 00 00 	mov    0x2030(%esp),%eax
 8049a77:	3d c8 00 00 00       	cmp    $0xc8,%eax
 8049a7c:	0f 84 c1 00 00 00    	je     8049b43 <submitr+0x5e2>
 8049a82:	8d 54 24 30          	lea    0x30(%esp),%edx
 8049a86:	89 54 24 0c          	mov    %edx,0xc(%esp)
 8049a8a:	89 44 24 08          	mov    %eax,0x8(%esp)
 8049a8e:	c7 44 24 04 3c a8 04 	movl   $0x804a83c,0x4(%esp)
 8049a95:	08 
 8049a96:	8b 84 24 88 a0 00 00 	mov    0xa088(%esp),%eax
 8049a9d:	89 04 24             	mov    %eax,(%esp)
 8049aa0:	e8 9b ed ff ff       	call   8048840 <sprintf@plt>
 8049aa5:	89 2c 24             	mov    %ebp,(%esp)
 8049aa8:	e8 d3 ed ff ff       	call   8048880 <close@plt>
 8049aad:	b8 ff ff ff ff       	mov    $0xffffffff,%eax
 8049ab2:	e9 91 02 00 00       	jmp    8049d48 <submitr+0x7e7>
 8049ab7:	b9 00 20 00 00       	mov    $0x2000,%ecx
 8049abc:	8d 94 24 34 60 00 00 	lea    0x6034(%esp),%edx
 8049ac3:	8d 84 24 34 80 00 00 	lea    0x8034(%esp),%eax
 8049aca:	e8 8d f9 ff ff       	call   804945c <rio_readlineb>
 8049acf:	85 c0                	test   %eax,%eax
 8049ad1:	7f 70                	jg     8049b43 <submitr+0x5e2>
 8049ad3:	8b 84 24 88 a0 00 00 	mov    0xa088(%esp),%eax
 8049ada:	c7 00 45 72 72 6f    	movl   $0x6f727245,(%eax)
 8049ae0:	c7 40 04 72 3a 20 43 	movl   $0x43203a72,0x4(%eax)
 8049ae7:	c7 40 08 6c 69 65 6e 	movl   $0x6e65696c,0x8(%eax)
 8049aee:	c7 40 0c 74 20 75 6e 	movl   $0x6e752074,0xc(%eax)
 8049af5:	c7 40 10 61 62 6c 65 	movl   $0x656c6261,0x10(%eax)
 8049afc:	c7 40 14 20 74 6f 20 	movl   $0x206f7420,0x14(%eax)
 8049b03:	c7 40 18 72 65 61 64 	movl   $0x64616572,0x18(%eax)
 8049b0a:	c7 40 1c 20 68 65 61 	movl   $0x61656820,0x1c(%eax)
 8049b11:	c7 40 20 64 65 72 73 	movl   $0x73726564,0x20(%eax)
 8049b18:	c7 40 24 20 66 72 6f 	movl   $0x6f726620,0x24(%eax)
 8049b1f:	c7 40 28 6d 20 73 65 	movl   $0x6573206d,0x28(%eax)
 8049b26:	c7 40 2c 72 76 65 72 	movl   $0x72657672,0x2c(%eax)
 8049b2d:	c6 40 30 00          	movb   $0x0,0x30(%eax)
 8049b31:	89 2c 24             	mov    %ebp,(%esp)
 8049b34:	e8 47 ed ff ff       	call   8048880 <close@plt>
 8049b39:	b8 ff ff ff ff       	mov    $0xffffffff,%eax
 8049b3e:	e9 05 02 00 00       	jmp    8049d48 <submitr+0x7e7>
 8049b43:	80 bc 24 34 60 00 00 	cmpb   $0xd,0x6034(%esp)
 8049b4a:	0d 
 8049b4b:	0f 85 66 ff ff ff    	jne    8049ab7 <submitr+0x556>
 8049b51:	80 bc 24 35 60 00 00 	cmpb   $0xa,0x6035(%esp)
 8049b58:	0a 
 8049b59:	0f 85 58 ff ff ff    	jne    8049ab7 <submitr+0x556>
 8049b5f:	80 bc 24 36 60 00 00 	cmpb   $0x0,0x6036(%esp)
 8049b66:	00 
 8049b67:	0f 85 4a ff ff ff    	jne    8049ab7 <submitr+0x556>
 8049b6d:	b9 00 20 00 00       	mov    $0x2000,%ecx
 8049b72:	8d 94 24 34 60 00 00 	lea    0x6034(%esp),%edx
 8049b79:	8d 84 24 34 80 00 00 	lea    0x8034(%esp),%eax
 8049b80:	e8 d7 f8 ff ff       	call   804945c <rio_readlineb>
 8049b85:	85 c0                	test   %eax,%eax
 8049b87:	7f 7a                	jg     8049c03 <submitr+0x6a2>
 8049b89:	8b 84 24 88 a0 00 00 	mov    0xa088(%esp),%eax
 8049b90:	c7 00 45 72 72 6f    	movl   $0x6f727245,(%eax)
 8049b96:	c7 40 04 72 3a 20 43 	movl   $0x43203a72,0x4(%eax)
 8049b9d:	c7 40 08 6c 69 65 6e 	movl   $0x6e65696c,0x8(%eax)
 8049ba4:	c7 40 0c 74 20 75 6e 	movl   $0x6e752074,0xc(%eax)
 8049bab:	c7 40 10 61 62 6c 65 	movl   $0x656c6261,0x10(%eax)
 8049bb2:	c7 40 14 20 74 6f 20 	movl   $0x206f7420,0x14(%eax)
 8049bb9:	c7 40 18 72 65 61 64 	movl   $0x64616572,0x18(%eax)
 8049bc0:	c7 40 1c 20 73 74 61 	movl   $0x61747320,0x1c(%eax)
 8049bc7:	c7 40 20 74 75 73 20 	movl   $0x20737574,0x20(%eax)
 8049bce:	c7 40 24 6d 65 73 73 	movl   $0x7373656d,0x24(%eax)
 8049bd5:	c7 40 28 61 67 65 20 	movl   $0x20656761,0x28(%eax)
 8049bdc:	c7 40 2c 66 72 6f 6d 	movl   $0x6d6f7266,0x2c(%eax)
 8049be3:	c7 40 30 20 73 65 72 	movl   $0x72657320,0x30(%eax)
 8049bea:	c7 40 34 76 65 72 00 	movl   $0x726576,0x34(%eax)
 8049bf1:	89 2c 24             	mov    %ebp,(%esp)
 8049bf4:	e8 87 ec ff ff       	call   8048880 <close@plt>
 8049bf9:	b8 ff ff ff ff       	mov    $0xffffffff,%eax
 8049bfe:	e9 45 01 00 00       	jmp    8049d48 <submitr+0x7e7>
 8049c03:	8d 84 24 34 60 00 00 	lea    0x6034(%esp),%eax
 8049c0a:	89 44 24 04          	mov    %eax,0x4(%esp)
 8049c0e:	8b 84 24 88 a0 00 00 	mov    0xa088(%esp),%eax
 8049c15:	89 04 24             	mov    %eax,(%esp)
 8049c18:	e8 63 eb ff ff       	call   8048780 <strcpy@plt>
 8049c1d:	89 2c 24             	mov    %ebp,(%esp)
 8049c20:	e8 5b ec ff ff       	call   8048880 <close@plt>
 8049c25:	8b 84 24 88 a0 00 00 	mov    0xa088(%esp),%eax
 8049c2c:	0f b6 00             	movzbl (%eax),%eax
 8049c2f:	83 e8 4f             	sub    $0x4f,%eax
 8049c32:	75 1b                	jne    8049c4f <submitr+0x6ee>
 8049c34:	8b 84 24 88 a0 00 00 	mov    0xa088(%esp),%eax
 8049c3b:	0f b6 40 01          	movzbl 0x1(%eax),%eax
 8049c3f:	83 e8 4b             	sub    $0x4b,%eax
 8049c42:	75 0b                	jne    8049c4f <submitr+0x6ee>
 8049c44:	8b 84 24 88 a0 00 00 	mov    0xa088(%esp),%eax
 8049c4b:	0f b6 40 02          	movzbl 0x2(%eax),%eax
 8049c4f:	85 c0                	test   %eax,%eax
 8049c51:	0f 95 c0             	setne  %al
 8049c54:	0f b6 c0             	movzbl %al,%eax
 8049c57:	f7 d8                	neg    %eax
 8049c59:	e9 ea 00 00 00       	jmp    8049d48 <submitr+0x7e7>
 8049c5e:	8d 84 24 34 40 00 00 	lea    0x4034(%esp),%eax
 8049c65:	89 44 24 14          	mov    %eax,0x14(%esp)
 8049c69:	8b 84 24 80 a0 00 00 	mov    0xa080(%esp),%eax
 8049c70:	89 44 24 10          	mov    %eax,0x10(%esp)
 8049c74:	8b 84 24 7c a0 00 00 	mov    0xa07c(%esp),%eax
 8049c7b:	89 44 24 0c          	mov    %eax,0xc(%esp)
 8049c7f:	8b 84 24 78 a0 00 00 	mov    0xa078(%esp),%eax
 8049c86:	89 44 24 08          	mov    %eax,0x8(%esp)
 8049c8a:	c7 44 24 04 6c a8 04 	movl   $0x804a86c,0x4(%esp)
 8049c91:	08 
 8049c92:	8d bc 24 34 60 00 00 	lea    0x6034(%esp),%edi
 8049c99:	89 3c 24             	mov    %edi,(%esp)
 8049c9c:	e8 9f eb ff ff       	call   8048840 <sprintf@plt>
 8049ca1:	b8 00 00 00 00       	mov    $0x0,%eax
 8049ca6:	b9 ff ff ff ff       	mov    $0xffffffff,%ecx
 8049cab:	f2 ae                	repnz scas %es:(%edi),%al
 8049cad:	f7 d1                	not    %ecx
 8049caf:	83 e9 01             	sub    $0x1,%ecx
 8049cb2:	89 cf                	mov    %ecx,%edi
 8049cb4:	0f 84 cc fc ff ff    	je     8049986 <submitr+0x425>
 8049cba:	89 cb                	mov    %ecx,%ebx
 8049cbc:	8d b4 24 34 60 00 00 	lea    0x6034(%esp),%esi
 8049cc3:	e9 2b fc ff ff       	jmp    80498f3 <submitr+0x392>
 8049cc8:	8b bc 24 88 a0 00 00 	mov    0xa088(%esp),%edi
 8049ccf:	be b8 a8 04 08       	mov    $0x804a8b8,%esi
 8049cd4:	b8 43 00 00 00       	mov    $0x43,%eax
 8049cd9:	f7 c7 01 00 00 00    	test   $0x1,%edi
 8049cdf:	74 1d                	je     8049cfe <submitr+0x79d>
 8049ce1:	0f b6 05 b8 a8 04 08 	movzbl 0x804a8b8,%eax
 8049ce8:	88 07                	mov    %al,(%edi)
 8049cea:	8b 84 24 88 a0 00 00 	mov    0xa088(%esp),%eax
 8049cf1:	8d 78 01             	lea    0x1(%eax),%edi
 8049cf4:	be b9 a8 04 08       	mov    $0x804a8b9,%esi
 8049cf9:	b8 42 00 00 00       	mov    $0x42,%eax
 8049cfe:	f7 c7 02 00 00 00    	test   $0x2,%edi
 8049d04:	74 0f                	je     8049d15 <submitr+0x7b4>
 8049d06:	0f b7 16             	movzwl (%esi),%edx
 8049d09:	66 89 17             	mov    %dx,(%edi)
 8049d0c:	83 c7 02             	add    $0x2,%edi
 8049d0f:	83 c6 02             	add    $0x2,%esi
 8049d12:	83 e8 02             	sub    $0x2,%eax
 8049d15:	89 c1                	mov    %eax,%ecx
 8049d17:	c1 e9 02             	shr    $0x2,%ecx
 8049d1a:	f3 a5                	rep movsl %ds:(%esi),%es:(%edi)
 8049d1c:	ba 00 00 00 00       	mov    $0x0,%edx
 8049d21:	a8 02                	test   $0x2,%al
 8049d23:	74 0b                	je     8049d30 <submitr+0x7cf>
 8049d25:	0f b7 16             	movzwl (%esi),%edx
 8049d28:	66 89 17             	mov    %dx,(%edi)
 8049d2b:	ba 02 00 00 00       	mov    $0x2,%edx
 8049d30:	a8 01                	test   $0x1,%al
 8049d32:	74 07                	je     8049d3b <submitr+0x7da>
 8049d34:	0f b6 04 16          	movzbl (%esi,%edx,1),%eax
 8049d38:	88 04 17             	mov    %al,(%edi,%edx,1)
 8049d3b:	89 2c 24             	mov    %ebp,(%esp)
 8049d3e:	e8 3d eb ff ff       	call   8048880 <close@plt>
 8049d43:	b8 ff ff ff ff       	mov    $0xffffffff,%eax
 8049d48:	81 c4 5c a0 00 00    	add    $0xa05c,%esp
 8049d4e:	5b                   	pop    %ebx
 8049d4f:	5e                   	pop    %esi
 8049d50:	5f                   	pop    %edi
 8049d51:	5d                   	pop    %ebp
 8049d52:	c3                   	ret    

08049d53 <init_timeout>:
 8049d53:	53                   	push   %ebx
 8049d54:	83 ec 18             	sub    $0x18,%esp
 8049d57:	8b 5c 24 20          	mov    0x20(%esp),%ebx
 8049d5b:	85 db                	test   %ebx,%ebx
 8049d5d:	74 26                	je     8049d85 <init_timeout+0x32>
 8049d5f:	c7 44 24 04 30 94 04 	movl   $0x8049430,0x4(%esp)
 8049d66:	08 
 8049d67:	c7 04 24 0e 00 00 00 	movl   $0xe,(%esp)
 8049d6e:	e8 cd e9 ff ff       	call   8048740 <signal@plt>
 8049d73:	85 db                	test   %ebx,%ebx
 8049d75:	b8 00 00 00 00       	mov    $0x0,%eax
 8049d7a:	0f 48 d8             	cmovs  %eax,%ebx
 8049d7d:	89 1c 24             	mov    %ebx,(%esp)
 8049d80:	e8 db e9 ff ff       	call   8048760 <alarm@plt>
 8049d85:	83 c4 18             	add    $0x18,%esp
 8049d88:	5b                   	pop    %ebx
 8049d89:	c3                   	ret    

08049d8a <init_driver>:
 8049d8a:	57                   	push   %edi
 8049d8b:	56                   	push   %esi
 8049d8c:	53                   	push   %ebx
 8049d8d:	83 ec 20             	sub    $0x20,%esp
 8049d90:	8b 74 24 30          	mov    0x30(%esp),%esi
 8049d94:	c7 44 24 04 01 00 00 	movl   $0x1,0x4(%esp)
 8049d9b:	00 
 8049d9c:	c7 04 24 0d 00 00 00 	movl   $0xd,(%esp)
 8049da3:	e8 98 e9 ff ff       	call   8048740 <signal@plt>
 8049da8:	c7 44 24 04 01 00 00 	movl   $0x1,0x4(%esp)
 8049daf:	00 
 8049db0:	c7 04 24 1d 00 00 00 	movl   $0x1d,(%esp)
 8049db7:	e8 84 e9 ff ff       	call   8048740 <signal@plt>
 8049dbc:	c7 44 24 04 01 00 00 	movl   $0x1,0x4(%esp)
 8049dc3:	00 
 8049dc4:	c7 04 24 1d 00 00 00 	movl   $0x1d,(%esp)
 8049dcb:	e8 70 e9 ff ff       	call   8048740 <signal@plt>
 8049dd0:	c7 44 24 08 00 00 00 	movl   $0x0,0x8(%esp)
 8049dd7:	00 
 8049dd8:	c7 44 24 04 01 00 00 	movl   $0x1,0x4(%esp)
 8049ddf:	00 
 8049de0:	c7 04 24 02 00 00 00 	movl   $0x2,(%esp)
 8049de7:	e8 64 ea ff ff       	call   8048850 <socket@plt>
 8049dec:	89 c3                	mov    %eax,%ebx
 8049dee:	85 c0                	test   %eax,%eax
 8049df0:	79 4e                	jns    8049e40 <init_driver+0xb6>
 8049df2:	c7 06 45 72 72 6f    	movl   $0x6f727245,(%esi)
 8049df8:	c7 46 04 72 3a 20 43 	movl   $0x43203a72,0x4(%esi)
 8049dff:	c7 46 08 6c 69 65 6e 	movl   $0x6e65696c,0x8(%esi)
 8049e06:	c7 46 0c 74 20 75 6e 	movl   $0x6e752074,0xc(%esi)
 8049e0d:	c7 46 10 61 62 6c 65 	movl   $0x656c6261,0x10(%esi)
 8049e14:	c7 46 14 20 74 6f 20 	movl   $0x206f7420,0x14(%esi)
 8049e1b:	c7 46 18 63 72 65 61 	movl   $0x61657263,0x18(%esi)
 8049e22:	c7 46 1c 74 65 20 73 	movl   $0x73206574,0x1c(%esi)
 8049e29:	c7 46 20 6f 63 6b 65 	movl   $0x656b636f,0x20(%esi)
 8049e30:	66 c7 46 24 74 00    	movw   $0x74,0x24(%esi)
 8049e36:	b8 ff ff ff ff       	mov    $0xffffffff,%eax
 8049e3b:	e9 1b 01 00 00       	jmp    8049f5b <init_driver+0x1d1>
 8049e40:	c7 04 24 df a5 04 08 	movl   $0x804a5df,(%esp)
 8049e47:	e8 14 ea ff ff       	call   8048860 <gethostbyname@plt>
 8049e4c:	85 c0                	test   %eax,%eax
 8049e4e:	75 68                	jne    8049eb8 <init_driver+0x12e>
 8049e50:	c7 06 45 72 72 6f    	movl   $0x6f727245,(%esi)
 8049e56:	c7 46 04 72 3a 20 44 	movl   $0x44203a72,0x4(%esi)
 8049e5d:	c7 46 08 4e 53 20 69 	movl   $0x6920534e,0x8(%esi)
 8049e64:	c7 46 0c 73 20 75 6e 	movl   $0x6e752073,0xc(%esi)
 8049e6b:	c7 46 10 61 62 6c 65 	movl   $0x656c6261,0x10(%esi)
 8049e72:	c7 46 14 20 74 6f 20 	movl   $0x206f7420,0x14(%esi)
 8049e79:	c7 46 18 72 65 73 6f 	movl   $0x6f736572,0x18(%esi)
 8049e80:	c7 46 1c 6c 76 65 20 	movl   $0x2065766c,0x1c(%esi)
 8049e87:	c7 46 20 73 65 72 76 	movl   $0x76726573,0x20(%esi)
 8049e8e:	c7 46 24 65 72 20 61 	movl   $0x61207265,0x24(%esi)
 8049e95:	c7 46 28 64 64 72 65 	movl   $0x65726464,0x28(%esi)
 8049e9c:	66 c7 46 2c 73 73    	movw   $0x7373,0x2c(%esi)
 8049ea2:	c6 46 2e 00          	movb   $0x0,0x2e(%esi)
 8049ea6:	89 1c 24             	mov    %ebx,(%esp)
 8049ea9:	e8 d2 e9 ff ff       	call   8048880 <close@plt>
 8049eae:	b8 ff ff ff ff       	mov    $0xffffffff,%eax
 8049eb3:	e9 a3 00 00 00       	jmp    8049f5b <init_driver+0x1d1>
 8049eb8:	8d 7c 24 10          	lea    0x10(%esp),%edi
 8049ebc:	c7 44 24 10 00 00 00 	movl   $0x0,0x10(%esp)
 8049ec3:	00 
 8049ec4:	c7 44 24 14 00 00 00 	movl   $0x0,0x14(%esp)
 8049ecb:	00 
 8049ecc:	c7 44 24 18 00 00 00 	movl   $0x0,0x18(%esp)
 8049ed3:	00 
 8049ed4:	c7 44 24 1c 00 00 00 	movl   $0x0,0x1c(%esp)
 8049edb:	00 
 8049edc:	66 c7 44 24 10 02 00 	movw   $0x2,0x10(%esp)
 8049ee3:	8b 50 0c             	mov    0xc(%eax),%edx
 8049ee6:	89 54 24 08          	mov    %edx,0x8(%esp)
 8049eea:	8d 54 24 14          	lea    0x14(%esp),%edx
 8049eee:	89 54 24 04          	mov    %edx,0x4(%esp)
 8049ef2:	8b 40 10             	mov    0x10(%eax),%eax
 8049ef5:	8b 00                	mov    (%eax),%eax
 8049ef7:	89 04 24             	mov    %eax,(%esp)
 8049efa:	e8 71 e8 ff ff       	call   8048770 <bcopy@plt>
 8049eff:	66 c7 44 24 12 23 8f 	movw   $0x8f23,0x12(%esp)
 8049f06:	c7 44 24 08 10 00 00 	movl   $0x10,0x8(%esp)
 8049f0d:	00 
 8049f0e:	89 7c 24 04          	mov    %edi,0x4(%esp)
 8049f12:	89 1c 24             	mov    %ebx,(%esp)
 8049f15:	e8 56 e9 ff ff       	call   8048870 <connect@plt>
 8049f1a:	85 c0                	test   %eax,%eax
 8049f1c:	79 27                	jns    8049f45 <init_driver+0x1bb>
 8049f1e:	c7 44 24 08 df a5 04 	movl   $0x804a5df,0x8(%esp)
 8049f25:	08 
 8049f26:	c7 44 24 04 fc a8 04 	movl   $0x804a8fc,0x4(%esp)
 8049f2d:	08 
 8049f2e:	89 34 24             	mov    %esi,(%esp)
 8049f31:	e8 0a e9 ff ff       	call   8048840 <sprintf@plt>
 8049f36:	89 1c 24             	mov    %ebx,(%esp)
 8049f39:	e8 42 e9 ff ff       	call   8048880 <close@plt>
 8049f3e:	b8 ff ff ff ff       	mov    $0xffffffff,%eax
 8049f43:	eb 16                	jmp    8049f5b <init_driver+0x1d1>
 8049f45:	89 1c 24             	mov    %ebx,(%esp)
 8049f48:	e8 33 e9 ff ff       	call   8048880 <close@plt>
 8049f4d:	66 c7 06 4f 4b       	movw   $0x4b4f,(%esi)
 8049f52:	c6 46 02 00          	movb   $0x0,0x2(%esi)
 8049f56:	b8 00 00 00 00       	mov    $0x0,%eax
 8049f5b:	83 c4 20             	add    $0x20,%esp
 8049f5e:	5b                   	pop    %ebx
 8049f5f:	5e                   	pop    %esi
 8049f60:	5f                   	pop    %edi
 8049f61:	c3                   	ret    

08049f62 <driver_post>:
 8049f62:	53                   	push   %ebx
 8049f63:	83 ec 28             	sub    $0x28,%esp
 8049f66:	8b 44 24 30          	mov    0x30(%esp),%eax
 8049f6a:	8b 5c 24 3c          	mov    0x3c(%esp),%ebx
 8049f6e:	83 7c 24 38 00       	cmpl   $0x0,0x38(%esp)
 8049f73:	74 24                	je     8049f99 <driver_post+0x37>
 8049f75:	8b 44 24 34          	mov    0x34(%esp),%eax
 8049f79:	89 44 24 04          	mov    %eax,0x4(%esp)
 8049f7d:	c7 04 24 3c a9 04 08 	movl   $0x804a93c,(%esp)
 8049f84:	e8 77 e7 ff ff       	call   8048700 <printf@plt>
 8049f89:	66 c7 03 4f 4b       	movw   $0x4b4f,(%ebx)
 8049f8e:	c6 43 02 00          	movb   $0x0,0x2(%ebx)
 8049f92:	b8 00 00 00 00       	mov    $0x0,%eax
 8049f97:	eb 4d                	jmp    8049fe6 <driver_post+0x84>
 8049f99:	85 c0                	test   %eax,%eax
 8049f9b:	74 3b                	je     8049fd8 <driver_post+0x76>
 8049f9d:	80 38 00             	cmpb   $0x0,(%eax)
 8049fa0:	74 36                	je     8049fd8 <driver_post+0x76>
 8049fa2:	89 5c 24 18          	mov    %ebx,0x18(%esp)
 8049fa6:	8b 54 24 34          	mov    0x34(%esp),%edx
 8049faa:	89 54 24 14          	mov    %edx,0x14(%esp)
 8049fae:	c7 44 24 10 53 a9 04 	movl   $0x804a953,0x10(%esp)
 8049fb5:	08 
 8049fb6:	89 44 24 0c          	mov    %eax,0xc(%esp)
 8049fba:	c7 44 24 08 5e a9 04 	movl   $0x804a95e,0x8(%esp)
 8049fc1:	08 
 8049fc2:	c7 44 24 04 8f 23 00 	movl   $0x238f,0x4(%esp)
 8049fc9:	00 
 8049fca:	c7 04 24 df a5 04 08 	movl   $0x804a5df,(%esp)
 8049fd1:	e8 8b f5 ff ff       	call   8049561 <submitr>
 8049fd6:	eb 0e                	jmp    8049fe6 <driver_post+0x84>
 8049fd8:	66 c7 03 4f 4b       	movw   $0x4b4f,(%ebx)
 8049fdd:	c6 43 02 00          	movb   $0x0,0x2(%ebx)
 8049fe1:	b8 00 00 00 00       	mov    $0x0,%eax
 8049fe6:	83 c4 28             	add    $0x28,%esp
 8049fe9:	5b                   	pop    %ebx
 8049fea:	c3                   	ret    
 8049feb:	66 90                	xchg   %ax,%ax
 8049fed:	66 90                	xchg   %ax,%ax
 8049fef:	90                   	nop

08049ff0 <__libc_csu_init>:
 8049ff0:	55                   	push   %ebp
 8049ff1:	57                   	push   %edi
 8049ff2:	31 ff                	xor    %edi,%edi
 8049ff4:	56                   	push   %esi
 8049ff5:	53                   	push   %ebx
 8049ff6:	e8 e5 e8 ff ff       	call   80488e0 <__x86.get_pc_thunk.bx>
 8049ffb:	81 c3 05 20 00 00    	add    $0x2005,%ebx
 804a001:	83 ec 1c             	sub    $0x1c,%esp
 804a004:	8b 6c 24 30          	mov    0x30(%esp),%ebp
 804a008:	8d b3 0c ff ff ff    	lea    -0xf4(%ebx),%esi
 804a00e:	e8 a9 e6 ff ff       	call   80486bc <_init>
 804a013:	8d 83 08 ff ff ff    	lea    -0xf8(%ebx),%eax
 804a019:	29 c6                	sub    %eax,%esi
 804a01b:	c1 fe 02             	sar    $0x2,%esi
 804a01e:	85 f6                	test   %esi,%esi
 804a020:	74 27                	je     804a049 <__libc_csu_init+0x59>
 804a022:	8d b6 00 00 00 00    	lea    0x0(%esi),%esi
 804a028:	8b 44 24 38          	mov    0x38(%esp),%eax
 804a02c:	89 2c 24             	mov    %ebp,(%esp)
 804a02f:	89 44 24 08          	mov    %eax,0x8(%esp)
 804a033:	8b 44 24 34          	mov    0x34(%esp),%eax
 804a037:	89 44 24 04          	mov    %eax,0x4(%esp)
 804a03b:	ff 94 bb 08 ff ff ff 	call   *-0xf8(%ebx,%edi,4)
 804a042:	83 c7 01             	add    $0x1,%edi
 804a045:	39 f7                	cmp    %esi,%edi
 804a047:	75 df                	jne    804a028 <__libc_csu_init+0x38>
 804a049:	83 c4 1c             	add    $0x1c,%esp
 804a04c:	5b                   	pop    %ebx
 804a04d:	5e                   	pop    %esi
 804a04e:	5f                   	pop    %edi
 804a04f:	5d                   	pop    %ebp
 804a050:	c3                   	ret    
 804a051:	eb 0d                	jmp    804a060 <__libc_csu_fini>
 804a053:	90                   	nop
 804a054:	90                   	nop
 804a055:	90                   	nop
 804a056:	90                   	nop
 804a057:	90                   	nop
 804a058:	90                   	nop
 804a059:	90                   	nop
 804a05a:	90                   	nop
 804a05b:	90                   	nop
 804a05c:	90                   	nop
 804a05d:	90                   	nop
 804a05e:	90                   	nop
 804a05f:	90                   	nop

0804a060 <__libc_csu_fini>:
 804a060:	f3 c3                	repz ret 

Disassembly of section .fini:

0804a064 <_fini>:
 804a064:	53                   	push   %ebx
 804a065:	83 ec 08             	sub    $0x8,%esp
 804a068:	e8 73 e8 ff ff       	call   80488e0 <__x86.get_pc_thunk.bx>
 804a06d:	81 c3 93 1f 00 00    	add    $0x1f93,%ebx
 804a073:	83 c4 08             	add    $0x8,%esp
 804a076:	5b                   	pop    %ebx
 804a077:	c3                   	ret    
